ccopy_reg
_reconstructor
p1
(cnetworkx.classes.graph
Graph
p2
c__builtin__
object
p3
NtRp4
(dp5
S'adjlist_inner_dict_factory'
p6
c__builtin__
dict
p7
sS'node_dict_factory'
p8
g7
sS'edge_attr_dict_factory'
p9
g7
sS'_node'
p10
(dp11
(ientity
company
p12
(dp13
S'text_dict'
p14
(dp15
S'noun_chunks'
p16
(lp17
S'Inclusive 3D printed electronics'
p18
aS'marketplace'
p19
aS'PCB'
p20
aS'two-dimensional printing'
p21
aS'3D substrate'
p22
aS'antennas'
p23
aS'adoption'
p24
aS'technology'
p25
aS'unique designs'
p26
aS'conventional electronics manufacturing technology'
p27
aS'ability'
p28
aS'antenna'
p29
aS'inside surface'
p30
aS'inside surface'
p31
aS'mobile phone s case'
p32
aS'unique form factors'
p33
aS'improved system performance'
p34
aS'potentially lower cost'
p35
aS'emerging markets'
p36
aS'3D sensors'
p37
aS'additional surface area'
p38
aS'system sensitivity'
p39
aS'printing'
p40
aS'multiple layers'
p41
aS'OLED display'
p42
aS'electronic paints'
p43
aS'autos'
p44
aS'buildings'
p45
aS'innovation'
p46
aS'active marketwide adoption'
p47
aS'technology'
p48
aS'one position'
p49
aS'2017 Hype Cycle'
p50
aS'near-term market'
p51
aS'3D printed semiconductors'
p52
aS'packaged products'
p53
aS'authentication'
p54
aS'products'
p55
aS'PCB'
p56
aS'medium term'
p57
aS'printed semiconductors'
p58
aS'low-cost devices'
p59
aS'modest performance requirements'
p60
aS'toys'
p61
aS'types'
p62
aS'sensors'
p63
aS'RFID tags'
p64
aS'consumer products'
p65
aS'Longer-term electronics and fabrication impacts'
p66
aS'displays'
p67
aS'addition'
p68
aS'look'
p69
aS'impact'
p70
aS'materials markets'
p71
aS'new organic and nanomaterial sectors'
p72
aS'technology CIOs'
p73
aS'technology innovation'
p74
aS'leaders'
p75
aS'display'
p76
aS'sensor'
p77
aS'solar cell'
p78
aS'PCB technology providers'
p79
aS'3D printed electronics'
p80
aS'fabrication'
p81
aS'it'
p82
aS'manufacturing costs'
p83
aS'Packaging vendors'
p84
aS'potential'
p85
aS'3D printed output'
p86
aS'anti-tampering and authentication purposes'
p87
aS'PCB manufacturers'
p88
aS'technology'
p89
aS'prototypes'
p90
aS'small production runs'
p91
aS'RFID users'
p92
aS'manufacturers'
p93
aS'developments'
p94
aS'printing and RFID design'
p95
aS'costs'
p96
aS'Personal device manufacturers'
p97
aS'mobile phone'
p98
aS'smartwatches'
p99
aS'technology'
p100
aS'traces'
p101
aS'simple circuitry'
p102
aS'product cases'
p103
aS'Automotive manufacturers'
p104
aS'technology'
p105
aS'printing traces'
p106
aS'electrical quality'
p107
aS'trace'
p108
aS'automotive standards'
p109
aS'Healthcare providers'
p110
aS'possible applications'
p111
aS'medical tattoos'
p112
aS'other wearable devices'
p113
aS'transistor count'
p114
asS'named_entities'
p115
(lp116
S'PCB'
p117
aS'two'
p118
aS'one'
p119
aS'2017 Hype Cycle'
p120
aS'PCB'
p121
aS'RFID'
p122
aS'PCB'
p123
aS'PCB'
p124
aS'RFID'
p125
aS'RFID'
p126
aS'Healthcare'
p127
asS'words'
p128
(lp129
S'All'
p130
aS'Inclusive'
p131
aS'3D'
p132
aS'printed'
p133
aS'electronics'
p134
aS'emerging'
p135
aS'marketplace'
p136
aS'PCB'
p137
aS'dimensional'
p138
aS'printing'
p139
aS'3D'
p140
aS'substrate'
p141
aS'antennas'
p142
aS'wire'
p143
aS'tracing'
p144
aS'The'
p145
aS'adoption'
p146
aS'technology'
p147
aS'enabling'
p148
aS'rapid'
p149
aS'prototyping'
p150
aS'unique'
p151
aS'designs'
p152
aS'expensive'
p153
aS'difficult'
p154
aS'conventional'
p155
aS'electronics'
p156
aS'manufacturing'
p157
aS'technology'
p158
aS'The'
p159
aS'ability'
p160
aS'print'
p161
aS'antenna'
p162
aS'eventually'
p163
aS'integrated'
p164
aS'circuit'
p165
aS'inside'
p166
aS'surface'
p167
aS'product'
p168
aS's'
aS'enclosure'
p169
aS'inside'
p170
aS'surface'
p171
aS'mobile'
p172
aS'phone'
p173
aS's'
aS'case'
p174
aS'enable'
p175
aS'unique'
p176
aS'form'
p177
aS'factors'
p178
aS'improved'
p179
aS'system'
p180
aS'performance'
p181
aS'potentially'
p182
aS'lower'
p183
aS'cost'
p184
aS'Potentially'
p185
aS'emerging'
p186
aS'markets'
p187
aS'able'
p188
aS'print'
p189
aS'3D'
p190
aS'sensors'
p191
aS'additional'
p192
aS'surface'
p193
aS'area'
p194
aS'improves'
p195
aS'system'
p196
aS'sensitivity'
p197
aS'printing'
p198
aS'multiple'
p199
aS'layers'
p200
aS'OLED'
p201
aS'display'
p202
aS'electronic'
p203
aS'paints'
p204
aS'autos'
p205
aS'buildings'
p206
aS'While'
p207
aS'innovation'
p208
aS'active'
p209
aS'marketwide'
p210
aS'adoption'
p211
aS'slow'
p212
aS'technology'
p213
aS'forward'
p214
aS'position'
p215
aS'2017'
p216
aS'Hype'
p217
aS'Cycle'
p218
aS'The'
p219
aS'near'
p220
aS'term'
p221
aS'market'
p222
aS'3D'
p223
aS'printed'
p224
aS'semiconductors'
p225
aS'packaged'
p226
aS'products'
p227
aS'authentication'
p228
aS'products'
p229
aS'PCB'
p230
aS'In'
p231
aS'medium'
p232
aS'term'
p233
aS'printed'
p234
aS'semiconductors'
p235
aS'affect'
p236
aS'low'
p237
aS'cost'
p238
aS'devices'
p239
aS'modest'
p240
aS'performance'
p241
aS'requirements'
p242
aS'toys'
p243
aS'types'
p244
aS'sensors'
p245
aS'RFID'
p246
aS'tags'
p247
aS'tracing'
p248
aS'consumer'
p249
aS'products'
p250
aS'Longer'
p251
aS'term'
p252
aS'electronics'
p253
aS'fabrication'
p254
aS'impacts'
p255
aS'displays'
p256
aS'solar'
p257
aS'In'
p258
aS'addition'
p259
aS'look'
p260
aS'impact'
p261
aS'materials'
p262
aS'markets'
p263
aS'new'
p264
aS'organic'
p265
aS'nanomaterial'
p266
aS'sectors'
p267
aS'emerge'
p268
aS'support'
p269
aS'technology'
p270
aS'CIOs'
p271
aS'technology'
p272
aS'innovation'
p273
aS'leaders'
p274
aS'display'
p275
aS'sensor'
p276
aS'solar'
p277
aS'cell'
p278
aS'PCB'
p279
aS'technology'
p280
aS'providers'
p281
aS'seriously'
p282
aS'evaluate'
p283
aS'3D'
p284
aS'printed'
p285
aS'electronics'
p286
aS'fabrication'
p287
aS'significantly'
p288
aS'reduce'
p289
aS'manufacturing'
p290
aS'costs'
p291
aS'Packaging'
p292
aS'vendors'
p293
aS'evaluate'
p294
aS'potential'
p295
aS'3D'
p296
aS'printed'
p297
aS'output'
p298
aS'anti'
p299
aS'tampering'
p300
aS'authentication'
p301
aS'purposes'
p302
aS'PCB'
p303
aS'manufacturers'
p304
aS'evaluate'
p305
aS'technology'
p306
aS'making'
p307
aS'prototypes'
p308
aS'small'
p309
aS'production'
p310
aS'runs'
p311
aS'RFID'
p312
aS'users'
p313
aS'manufacturers'
p314
aS'need'
p315
aS'stay'
p316
aS'abreast'
p317
aS'developments'
p318
aS'printing'
p319
aS'RFID'
p320
aS'design'
p321
aS'reduce'
p322
aS'costs'
p323
aS'Personal'
p324
aS'device'
p325
aS'manufacturers'
p326
aS'mobile'
p327
aS'phone'
p328
aS'smartwatches'
p329
aS'use'
p330
aS'technology'
p331
aS'print'
p332
aS'traces'
p333
aS'simple'
p334
aS'circuitry'
p335
aS'product'
p336
aS'cases'
p337
aS'Automotive'
p338
aS'manufacturers'
p339
aS'consider'
p340
aS'technology'
p341
aS'printing'
p342
aS'traces'
p343
aS'provided'
p344
aS'electrical'
p345
aS'quality'
p346
aS'trace'
p347
aS'meets'
p348
aS'automotive'
p349
aS'standards'
p350
aS'Healthcare'
p351
aS'providers'
p352
aS'begin'
p353
aS'evaluating'
p354
aS'possible'
p355
aS'applications'
p356
aS'medical'
p357
aS'tattoos'
p358
aS'wearable'
p359
aS'devices'
p360
aS'transistor'
p361
aS'count'
p362
aS'improved'
p363
assS'_class'
p364
(lp365
S'3D Printed Electronics and Fabrication'
p366
asS'_name'
p367
S'Thin Film Electronics'
p368
sb(dp369
s(ientity
company
p370
(dp371
g14
(dp372
g16
(lp373
S'Healthcare Providers'
p374
aS'broad array'
p375
aS'current and potential 3D bioprinting applications'
p376
aS'very different challenges'
p377
aS'many years'
p378
aS'different time frames'
p379
aS'their adoption'
p380
aS'creation'
p381
aS'human-transplantable organs'
p382
aS'biggest dreams'
p383
aS'it'
p384
aS'dream'
p385
aS'transplantable organs'
p386
aS'all the complexities'
p387
aS'many others'
p388
aS'functional vascular systems'
p389
aS'Challenges'
p390
aS'organs'
p391
aS'body'
p392
aS'rejection issues'
p393
aS'long-term viability'
p394
aS'effect'
p395
aS'organs'
p396
aS'Very complex scientific technical regulatory and adoption issues'
p397
aS'play'
p398
aS'Very profound potential business funding ethical and personal health impacts'
p399
aS'other challenges'
p400
aS'more advanced/different types'
p401
aS'3DP technology'
p402
aS'we'
p403
aS'printing'
p404
aS'organs'
p405
aS'-shelf'
p406
aS'We'
p407
aS'category'
p408
aS'progress'
p409
aS'transplantable kidneys'
p410
aS'livers'
p411
aS'Kidneys'
p412
aS'about 80%'
p413
aS'high fatality rates'
p414
aS'waiting patients'
p415
aS'experts kidney transplants'
p416
aS'simpler end'
p417
aS'complicated journey'
p418
aS'we'
p419
aS'complete organ'
p420
aS'10 years'
p421
aS'early volumes'
p422
aS'most difficult clinical issues'
p423
aS'sustained vascular system'
p424
aS'organ'
p425
aS'hepatocyte/livers'
p426
aS'dishes'
p427
aS'all the right cytochrome'
p428
aS'We'
p429
aS'profile'
p430
aS'viability real-world availability'
p431
aS'use'
p432
aS'humans'
p433
aS'adoption rates'
p434
aS'actual organ products'
p435
aS'Harvard Wyss Institute'
p436
aS'potential breakthrough'
p437
aS'October'
p438
aS'We'
p439
aS'boundaries'
p440
aS'three-dimensional printing'
p441
aS'multiple functional materials'
p442
aS'printed devices'
p443
aS'Wyss Jennifer Lewis Sc'
p444
aS'D.'
p445
aS'who'
p446
aS'core faculty'
p447
aS'Wyss'
p448
aS'research team'
p449
aS'six different inks'
p450
aS'soft strain sensors'
p451
aS'microarchitecture'
p452
aS'tissue'
p453
aS'It'
p454
aS'3D'
p455
aS'materials'
p456
aS'cardiac microphysiological device'
p457
aS'heart'
p458
aS'chip'
p459
aS'Wyss team'
p460
aS'organ chips'
p461
aS'microarchitecture'
p462
aS'functions'
p463
aS'muscle tongue lung intestine kidney'
p464
aS'bone marrow'
p465
aS'-chip'
p466
aS'integrated-sensors'
p467
aS'inert polymers'
p468
aS'metals'
p469
aS'We'
p470
aS'simple 3D bioprinted tissue grafts'
p471
aS'complex tissue regeneration'
p472
aS'ability'
p473
aS'new and precisely personalized human tissues'
p474
aS'array'
p475
aS'therapeutic options'
p476
aS'wide range'
p477
aS'patient injuries'
p478
aS'diseases'
p479
aS'Bioprinted organs'
p480
aS'patient s own cells'
p481
aS'benefit'
p482
aS'rejection'
p483
aS'implanted/transplanted tissue'
p484
aS'costs'
p485
aS'lifetime'
p486
aS'anti-rejection drugs'
p487
aS'emerging use cases'
p488
aS'limited or rare scenarios'
p489
aS'time'
p490
aS'total impact'
p491
aS'medicine'
p492
aS'additional indeed earlier market'
p493
aS'production'
p494
aS'tissues'
p495
aS'organs'
p496
aS'life science research'
p497
aS'development'
p498
aS'business'
p499
aS'needed early revenue'
p500
aS'startups'
p501
aS'human tissue'
p502
aS'organ 3D bioprinting CIOs'
p503
aS'life science companies'
p504
aS'academic medical centers'
p505
aS'investigations'
p506
aS'R&D efforts'
p507
aS'3D bioprinting techniques'
p508
aS'area'
p509
aS'more a major emerging life science technology'
p510
aS'classic healthcare IT'
p511
aS'testing R&D'
p512
aS'ultimately organ manufacturing businesses'
p513
aS'CIOs'
p514
aS'lookout'
p515
aS'new data exchanges applications'
p516
aS'storage'
p517
aS'device support requirements'
p518
aS'Healthcare provider CIOs CMIOs'
p519
aS'medical leaders'
p520
aS'other technologies'
p521
aS'precision medicine'
p522
aS'body'
p523
aS'new construct'
p524
aS'scope'
p525
aS'IT services'
p526
aS'expanded responsibilities'
p527
aS'next decade'
p528
aS'medical tasks workflows'
p529
aS'clinical decision making'
p530
aS'Early instantiations'
p531
aS'organ transplants'
p532
aS'remote manufacturing services'
p533
aS'Even this scenario'
p534
aS'exchanges'
p535
aS'design parameters'
p536
aS'patient and imaging data'
p537
aS'different context'
p538
aS'unique tracking'
p539
aS'supply chain'
p540
aS'transplanted custom organ data'
p541
aS'different nature'
p542
aS'EHR'
p543
a(lp544
S'Inclusive 3D bioprinters products services'
p545
aS'reagents'
p546
aS'research market'
p547
aS'only a few years'
p548
aS'most bioprinting work'
p549
aS'customized robotics'
p550
aS'academic environments'
p551
aS'research hospitals'
p552
aS'few vendors'
p553
aS'services'
p554
aS'R&D market'
p555
aS'niche assay products'
p556
aS'custom-printed labware'
p557
aS'We'
p558
aS'more players'
p559
aS'market'
p560
aS'3D-printed skin organ scaffolds'
p561
aS'actual functioning organs'
p562
aS'next few years'
p563
aS'Printing'
p564
aS'cells'
p565
aS'scaffolds'
p566
aS'assays'
p567
aS'rapid increase'
p568
aS'next three to five years'
p569
aS'quality products'
p570
aS'as much art'
p571
aS'it'
p572
aS'science'
p573
aS'variable quality'
p574
aS'irregular supply issues'
p575
aS'hype'
p576
aS'existing assays'
p577
aS'most cases'
p578
aS'it'
p579
aS'existing ones'
p580
aS'nearly 50 different vendors'
p581
aS'service providers'
p582
aS'final products'
p583
aS'contract services'
p584
aS'Nearly half'
p585
aS'vendors'
p586
aS'last eight years'
p587
aS'companies'
p588
aS'strong foundation'
p589
aS'science'
p590
aS'high-quality and reliable logistics'
p591
aS'significant amount'
p592
aS'research'
p593
aS'academic and industrial communities'
p594
aS'scaffold-based and scaffold-free printing'
p595
aS'mainstream media'
p596
aS'complex organ development'
p597
aS'tissue regeneration'
p598
aS'skin cartilage bones'
p599
aS'blood vessels'
p600
aS'bulk'
p601
aS'activities'
p602
aS'life science industry'
p603
aS'assays'
p604
aS'drug toxicity'
p605
aS'chip'
p606
aS'cosmetics'
p607
aS'special context'
p608
aS'informatics'
p609
aS'more complex environment'
p610
aS'new insights'
p611
aS'three-dimensional assays'
p612
aS'traditional two-dimensional cell-adherent models'
p613
aS'R&D groups'
p614
aS'hunger'
p615
aS'more lifelike assays'
p616
aS'odds'
p617
aS'drug candidate'
p618
aS'research'
p619
aS'preclinical development'
p620
aS'human trials'
p621
aS'impacts'
p622
aS'research'
p623
aS'it'
p624
aS'researchers'
p625
aS'new discoveries'
p626
aS'innovations'
p627
aS'drugs'
p628
aS'therapies Information'
p629
aS'assays'
p630
aS'environments'
p631
aS'R&D process'
p632
aS'early-stage drug discovery'
p633
aS'later-stage pharmacokinetic analysis'
p634
aS'Bioprinting'
p635
aS'understanding'
p636
aS'complex 3D cellular environments'
p637
aS'case'
p638
aS'new assay tools'
p639
aS'experimental information'
p640
aS'existing hypotheses'
p641
aS'findings'
p642
aS'we'
p643
aS'long trial and error process'
p644
aS'informatics components'
p645
aS'Bioprinting'
p646
aS'potential'
p647
aS'real challenge'
p648
aS'bioprinting technology'
p649
aS'itself'
p650
aS'rather the scientific assumptions'
p651
aS'analysis'
p652
aS'relationships'
p653
aS'informatics and assay validation'
p654
aS'few commercialized scientific informatics solutions'
p655
aS'workflows'
p656
aS'new R&D methodology'
p657
aS'further confirmation testing'
p658
aS'larger organizations'
p659
aS'legacy'
p660
aS'other techniques'
p661
aag544
asg115
(lp662
S'Healthcare Providers'
p663
aS'many years'
p664
aS'3DP s'
p665
aS'3DP'
p666
aS'today'
p667
aS'about 80%'
p668
aS'10 years'
p669
aS'One'
p670
aS'P450s'
p671
aS'year'
p672
aS'Harvard Wyss Institute'
p673
aS'October 2016'
p674
aS'three'
p675
aS'Wyss Jennifer Lewis Sc'
p676
aS'D.'
p677
aS'Wyss'
p678
aS'six'
p679
aS'Wyss'
p680
aS'today'
p681
aS'Healthcare'
p682
aS'CMIOs'
p683
aS'next decade'
p684
a(lp685
S'only a few years'
p686
aS'Today'
p687
aS'next few years'
p688
aS'next three to five years'
p689
aS'today'
p690
aS'nearly 50'
p691
aS'Nearly half'
p692
aS'last eight years'
p693
aS'overnight'
p694
aS'2017'
p695
aS'three'
p696
aS'two'
p697
aS'Information'
p698
aS'three'
p699
aag685
asg128
(lp700
S'Healthcare'
p701
aS'Providers'
p702
aS'There'
p703
aS'broad'
p704
aS'array'
p705
aS'current'
p706
aS'potential'
p707
aS'3D'
p708
aS'bioprinting'
p709
aS'applications'
p710
aS'different'
p711
aS'challenges'
p712
aS'years'
p713
aS'different'
p714
aS'time'
p715
aS'frames'
p716
aS'adoption'
p717
aS'The'
p718
aS'creation'
p719
aS'human'
p720
aS'transplantable'
p721
aS'organs'
p722
aS'certainly'
p723
aS'medical'
p724
aS'3DP'
p725
aS's'
aS'biggest'
p726
aS'dreams'
p727
aS'dream'
p728
aS'grasp'
p729
aS'Creating'
p730
aS'transplantable'
p731
aS'organs'
p732
aS'complexities'
p733
aS'human'
p734
aS'tissue'
p735
aS'bioprinting'
p736
aS'functional'
p737
aS'vascular'
p738
aS'systems'
p739
aS'Challenges'
p740
aS'include'
p741
aS'test'
p742
aS'organs'
p743
aS'integrate'
p744
aS'body'
p745
aS'avoiding'
p746
aS'rejection'
p747
aS'issues'
p748
aS'test'
p749
aS'prove'
p750
aS'long'
p751
aS'term'
p752
aS'viability'
p753
aS'effect'
p754
aS'organs'
p755
aS'Very'
p756
aS'complex'
p757
aS'scientific'
p758
aS'technical'
p759
aS'regulatory'
p760
aS'adoption'
p761
aS'issues'
p762
aS'play'
p763
aS'Very'
p764
aS'profound'
p765
aS'potential'
p766
aS'business'
p767
aS'funding'
p768
aS'ethical'
p769
aS'personal'
p770
aS'health'
p771
aS'impacts'
p772
aS'arise'
p773
aS'challenges'
p774
aS'finally'
p775
aS'conquered'
p776
aS'This'
p777
aS'likely'
p778
aS'require'
p779
aS'advanced'
p780
aS'different'
p781
aS'types'
p782
aS'3DP'
p783
aS'technology'
p784
aS'today'
p785
aS'designed'
p786
aS'specifically'
p787
aS'printing'
p788
aS'organs'
p789
aS'adapted'
p790
aS'shelf'
p791
aS'commercial'
p792
aS'3D'
p793
aS'printing'
p794
aS'technology'
p795
aS'We'
p796
aS'evaluate'
p797
aS'category'
p798
aS'based'
p799
aS'progress'
p800
aS'transplantable'
p801
aS'kidneys'
p802
aS'livers'
p803
aS'Kidneys'
p804
aS'account'
p805
aS'80'
p806
aS'transplant'
p807
aS'needs'
p808
aS'high'
p809
aS'fatality'
p810
aS'rates'
p811
aS'waiting'
p812
aS'patients'
p813
aS'According'
p814
aS'experts'
p815
aS'kidney'
p816
aS'transplants'
p817
aS'simpler'
p818
aS'end'
p819
aS'complicated'
p820
aS'journey'
p821
aS'Although'
p822
aS'complete'
p823
aS'organ'
p824
aS'viably'
p825
aS'grown'
p826
aS'implanted'
p827
aS'10'
p828
aS'years'
p829
aS'early'
p830
aS'volumes'
p831
aS'low'
p832
aS'One'
p833
aS'difficult'
p834
aS'clinical'
p835
aS'issues'
p836
aS'creating'
p837
aS'sustained'
p838
aS'vascular'
p839
aS'system'
p840
aS'organ'
p841
aS'The'
p842
aS'hepatocyte'
p843
aS'livers'
p844
aS'dishes'
p845
aS'expressing'
p846
aS'right'
p847
aS'cytochrome'
p848
aS'P450s'
p849
aS'We'
p850
aS'moved'
p851
aS'profile'
p852
aS'ahead'
p853
aS'slightly'
p854
aS'year'
p855
aS'The'
p856
aS'viability'
p857
aS'real'
p858
aS'world'
p859
aS'availability'
p860
aS'use'
p861
aS'humans'
p862
aS'adoption'
p863
aS'rates'
p864
aS'actual'
p865
aS'organ'
p866
aS'products'
p867
aS'highly'
p868
aS'speculative'
p869
aS'The'
p870
aS'Harvard'
p871
aS'Wyss'
p872
aS'Institute'
p873
aS'announced'
p874
aS'potential'
p875
aS'breakthrough'
p876
aS'October'
p877
aS'2016'
p878
aS'We'
p879
aS'pushing'
p880
aS'boundaries'
p881
aS'dimensional'
p882
aS'printing'
p883
aS'developing'
p884
aS'integrating'
p885
aS'multiple'
p886
aS'functional'
p887
aS'materials'
p888
aS'printed'
p889
aS'devices'
p890
aS'said'
p891
aS'Wyss'
p892
aS'Jennifer'
p893
aS'Lewis'
p894
aS'Sc'
p895
aS'D.'
p896
aS'core'
p897
aS'faculty'
p898
aS'Wyss'
p899
aS'The'
p900
aS'research'
p901
aS'team'
p902
aS'developed'
p903
aS'different'
p904
aS'inks'
p905
aS'integrated'
p906
aS'soft'
p907
aS'strain'
p908
aS'sensors'
p909
aS'microarchitecture'
p910
aS'tissue'
p911
aS'It'
p912
aS'3D'
p913
aS'printed'
p914
aS'materials'
p915
aS'cardiac'
p916
aS'microphysiological'
p917
aS'device'
p918
aS'heart'
p919
aS'chip'
p920
aS'The'
p921
aS'Wyss'
p922
aS'team'
p923
aS'developed'
p924
aS'organ'
p925
aS'chips'
p926
aS'mimic'
p927
aS'microarchitecture'
p928
aS'functions'
p929
aS'muscle'
p930
aS'tongue'
p931
aS'lung'
p932
aS'intestine'
p933
aS'kidney'
p934
aS'bone'
p935
aS'marrow'
p936
aS'-entirely-3d'
p937
aS'printed'
p938
aS'organ'
p939
aS'chip'
p940
aS'integrated'
p941
aS'sensors'
p942
aS'Implants'
p943
aS'inert'
p944
aS'polymers'
p945
aS'metals'
p946
aS'regularly'
p947
aS'performed'
p948
aS'today'
p949
aS'We'
p950
aS'expect'
p951
aS'simple'
p952
aS'3D'
p953
aS'bioprinted'
p954
aS'tissue'
p955
aS'grafts'
p956
aS'followed'
p957
aS'complex'
p958
aS'tissue'
p959
aS'regeneration'
p960
aS'The'
p961
aS'ability'
p962
aS'build'
p963
aS'new'
p964
aS'precisely'
p965
aS'personalized'
p966
aS'human'
p967
aS'tissues'
p968
aS'substantially'
p969
aS'expands'
p970
aS'array'
p971
aS'therapeutic'
p972
aS'options'
p973
aS'wide'
p974
aS'range'
p975
aS'patient'
p976
aS'injuries'
p977
aS'diseases'
p978
aS'Bioprinted'
p979
aS'organs'
p980
aS'patient'
p981
aS's'
aS'cells'
p982
aS'hoped'
p983
aS'benefit'
p984
aS'avoiding'
p985
aS'rejection'
p986
aS'implanted'
p987
aS'transplanted'
p988
aS'tissue'
p989
aS'costs'
p990
aS'lifetime'
p991
aS'anti'
p992
aS'rejection'
p993
aS'drugs'
p994
aS'Many'
p995
aS'emerging'
p996
aS'use'
p997
aS'cases'
p998
aS'limited'
p999
aS'rare'
p1000
aS'scenarios'
p1001
aS'However'
p1002
aS'aggregate'
p1003
aS'time'
p1004
aS'total'
p1005
aS'impact'
p1006
aS'medicine'
p1007
aS'transformational'
p1008
aS'There'
p1009
aS'additional'
p1010
aS'earlier'
p1011
aS'market'
p1012
aS'production'
p1013
aS'tissues'
p1014
aS'organs'
p1015
aS'life'
p1016
aS'science'
p1017
aS'research'
p1018
aS'development'
p1019
aS'This'
p1020
aS'business'
p1021
aS'providing'
p1022
aS'needed'
p1023
aS'early'
p1024
aS'revenue'
p1025
aS'startups'
p1026
aS'targeting'
p1027
aS'human'
p1028
aS'tissue'
p1029
aS'organ'
p1030
aS'3D'
p1031
aS'bioprinting'
p1032
aS'CIOs'
p1033
aS'supporting'
p1034
aS'life'
p1035
aS'science'
p1036
aS'companies'
p1037
aS'academic'
p1038
aS'medical'
p1039
aS'centers'
p1040
aS'lead'
p1041
aS'investigations'
p1042
aS'support'
p1043
aS'R&D'
p1044
aS'efforts'
p1045
aS'develop'
p1046
aS'3D'
p1047
aS'bioprinting'
p1048
aS'techniques'
p1049
aS'This'
p1050
aS'area'
p1051
aS'major'
p1052
aS'emerging'
p1053
aS'life'
p1054
aS'science'
p1055
aS'technology'
p1056
aS'classic'
p1057
aS'healthcare'
p1058
aS'IT'
p1059
aS'However'
p1060
aS'testing'
p1061
aS'R&D'
p1062
aS'uses'
p1063
aS'ultimately'
p1064
aS'organ'
p1065
aS'manufacturing'
p1066
aS'businesses'
p1067
aS'emerge'
p1068
aS'CIOs'
p1069
aS'lookout'
p1070
aS'new'
p1071
aS'data'
p1072
aS'exchanges'
p1073
aS'applications'
p1074
aS'storage'
p1075
aS'device'
p1076
aS'support'
p1077
aS'requirements'
p1078
aS'Healthcare'
p1079
aS'provider'
p1080
aS'CIOs'
p1081
aS'CMIOs'
p1082
aS'medical'
p1083
aS'leaders'
p1084
aS'monitor'
p1085
aS'3D'
p1086
aS'bioprinting'
p1087
aS'technologies'
p1088
aS'precision'
p1089
aS'medicine'
p1090
aS'rebuilding'
p1091
aS'body'
p1092
aS'model'
p1093
aS'new'
p1094
aS'construct'
p1095
aS'scope'
p1096
aS'IT'
p1097
aS'services'
p1098
aS'Be'
p1099
aS'prepared'
p1100
aS'expanded'
p1101
aS'responsibilities'
p1102
aS'decade'
p1103
aS'supporting'
p1104
aS'medical'
p1105
aS'tasks'
p1106
aS'workflows'
p1107
aS'clinical'
p1108
aS'decision'
p1109
aS'making'
p1110
aS'Early'
p1111
aS'instantiations'
p1112
aS'3D'
p1113
aS'bioprinting'
p1114
aS'organ'
p1115
aS'transplants'
p1116
aS'likely'
p1117
aS'delivered'
p1118
aS'remote'
p1119
aS'manufacturing'
p1120
aS'services'
p1121
aS'Even'
p1122
aS'scenario'
p1123
aS'involves'
p1124
aS'exchanges'
p1125
aS'design'
p1126
aS'parameters'
p1127
aS'patient'
p1128
aS'imaging'
p1129
aS'data'
p1130
aS'transmitted'
p1131
aS'different'
p1132
aS'context'
p1133
aS'unique'
p1134
aS'tracking'
p1135
aS'supply'
p1136
aS'chain'
p1137
aS'documenting'
p1138
aS'transplanted'
p1139
aS'custom'
p1140
aS'organ'
p1141
aS'data'
p1142
aS'different'
p1143
aS'nature'
p1144
aS'EHR'
p1145
a(lp1146
S'All'
p1147
aS'Inclusive'
p1148
aS'3D'
p1149
aS'bioprinters'
p1150
aS'products'
p1151
aS'services'
p1152
aS'reagents'
p1153
aS'available'
p1154
aS'research'
p1155
aS'market'
p1156
aS'years'
p1157
aS'Today'
p1158
aS'bioprinting'
p1159
aS'work'
p1160
aS'performed'
p1161
aS'customized'
p1162
aS'robotics'
p1163
aS'academic'
p1164
aS'environments'
p1165
aS'research'
p1166
aS'hospitals'
p1167
aS'A'
aS'vendors'
p1168
aS'beginning'
p1169
aS'offer'
p1170
aS'services'
p1171
aS'supply'
p1172
aS'R&D'
p1173
aS'market'
p1174
aS'niche'
p1175
aS'assay'
p1176
aS'products'
p1177
aS'custom'
p1178
aS'printed'
p1179
aS'labware'
p1180
aS'We'
p1181
aS'anticipate'
p1182
aS'players'
p1183
aS'enter'
p1184
aS'market'
p1185
aS'3D'
p1186
aS'printed'
p1187
aS'skin'
p1188
aS'organ'
p1189
aS'scaffolds'
p1190
aS'actual'
p1191
aS'functioning'
p1192
aS'organs'
p1193
aS'years'
p1194
aS'Printing'
p1195
aS'cells'
p1196
aS'scaffolds'
p1197
aS'assays'
p1198
aS'continue'
p1199
aS'rapid'
p1200
aS'increase'
p1201
aS'years'
p1202
aS'However'
p1203
aS'creating'
p1204
aS'quality'
p1205
aS'products'
p1206
aS'today'
p1207
aS'requires'
p1208
aS'art'
p1209
aS'science'
p1210
aS'Hence'
p1211
aS'variable'
p1212
aS'quality'
p1213
aS'irregular'
p1214
aS'supply'
p1215
aS'issues'
p1216
aS'temper'
p1217
aS'hype'
p1218
aS'Also'
p1219
aS'bioprinting'
p1220
aS'necessarily'
p1221
aS'replacing'
p1222
aS'existing'
p1223
aS'assays'
p1224
aS'In'
p1225
aS'cases'
p1226
aS'complements'
p1227
aS'existing'
p1228
aS'ones'
p1229
aS'There'
p1230
aS'nearly'
p1231
aS'50'
p1232
aS'different'
p1233
aS'vendors'
p1234
aS'service'
p1235
aS'providers'
p1236
aS'selling'
p1237
aS'automation'
p1238
aS'consumables'
p1239
aS'final'
p1240
aS'products'
p1241
aS'contract'
p1242
aS'services'
p1243
aS'3D'
p1244
aS'bioprinting'
p1245
aS'Nearly'
p1246
aS'half'
p1247
aS'vendors'
p1248
aS'incorporated'
p1249
aS'years'
p1250
aS'Many'
p1251
aS'companies'
p1252
aS'strong'
p1253
aS'foundation'
p1254
aS'science'
p1255
aS'high'
p1256
aS'quality'
p1257
aS'reliable'
p1258
aS'logistics'
p1259
aS'accomplished'
p1260
aS'overnight'
p1261
aS'In'
p1262
aS'2017'
p1263
aS'significant'
p1264
aS'research'
p1265
aS'generated'
p1266
aS'academic'
p1267
aS'industrial'
p1268
aS'communities'
p1269
aS'scaffold'
p1270
aS'based'
p1271
aS'scaffold'
p1272
aS'free'
p1273
aS'printing'
p1274
aS'While'
p1275
aS'mainstream'
p1276
aS'media'
p1277
aS'covered'
p1278
aS'bioprinting'
p1279
aS'studying'
p1280
aS'complex'
p1281
aS'organ'
p1282
aS'development'
p1283
aS'tissue'
p1284
aS'regeneration'
p1285
aS'skin'
p1286
aS'cartilage'
p1287
aS'bones'
p1288
aS'blood'
p1289
aS'vessels'
p1290
aS'bulk'
p1291
aS'activities'
p1292
aS'life'
p1293
aS'science'
p1294
aS'industry'
p1295
aS'actually'
p1296
aS'improving'
p1297
aS'assays'
p1298
aS'drug'
p1299
aS'toxicity'
p1300
aS'vitro'
p1301
aS'organ'
p1302
aS'models'
p1303
aS'organ'
p1304
aS'chip'
p1305
aS'studies'
p1306
aS'cosmetics'
p1307
aS'assays'
p1308
aS'3D'
p1309
aS'bioprinting'
p1310
aS'add'
p1311
aS'special'
p1312
aS'context'
p1313
aS'informatics'
p1314
aS'codify'
p1315
aS'complex'
p1316
aS'environment'
p1317
aS'lead'
p1318
aS'new'
p1319
aS'insights'
p1320
aS'The'
p1321
aS'dimensional'
p1322
aS'assays'
p1323
aS'reported'
p1324
aS'lifelike'
p1325
aS'traditional'
p1326
aS'dimensional'
p1327
aS'cell'
p1328
aS'adherent'
p1329
aS'models'
p1330
aS'R&D'
p1331
aS'groups'
p1332
aS'hunger'
p1333
aS'lifelike'
p1334
aS'assays'
p1335
aS'improve'
p1336
aS'odds'
p1337
aS'moving'
p1338
aS'drug'
p1339
aS'candidate'
p1340
aS'research'
p1341
aS'preclinical'
p1342
aS'development'
p1343
aS'human'
p1344
aS'trials'
p1345
aS'The'
p1346
aS'impacts'
p1347
aS'bioprinting'
p1348
aS'research'
p1349
aS'help'
p1350
aS'researchers'
p1351
aS'find'
p1352
aS'new'
p1353
aS'discoveries'
p1354
aS'develop'
p1355
aS'innovations'
p1356
aS'drugs'
p1357
aS'therapies'
p1358
aS'Information'
p1359
aS'generated'
p1360
aS'assays'
p1361
aS'run'
p1362
aS'environments'
p1363
aS'begin'
p1364
aS'leveraged'
p1365
aS'R&D'
p1366
aS'process'
p1367
aS'early'
p1368
aS'stage'
p1369
aS'drug'
p1370
aS'discovery'
p1371
aS'later'
p1372
aS'stage'
p1373
aS'pharmacokinetic'
p1374
aS'analysis'
p1375
aS'Bioprinting'
p1376
aS'improve'
p1377
aS'understanding'
p1378
aS'complex'
p1379
aS'3D'
p1380
aS'cellular'
p1381
aS'environments'
p1382
aS'However'
p1383
aS'case'
p1384
aS'new'
p1385
aS'assay'
p1386
aS'tools'
p1387
aS'experimental'
p1388
aS'information'
p1389
aS'bioprinting'
p1390
aS'confirm'
p1391
aS'existing'
p1392
aS'hypotheses'
p1393
aS'contrast'
p1394
aS'findings'
p1395
aS'Due'
p1396
aS'expect'
p1397
aS'long'
p1398
aS'trial'
p1399
aS'error'
p1400
aS'process'
p1401
aS'bioprinting'
p1402
aS'informatics'
p1403
aS'components'
p1404
aS'improve'
p1405
aS'Bioprinting'
p1406
aS'potential'
p1407
aS'disruptive'
p1408
aS'real'
p1409
aS'challenge'
p1410
aS'isn'
p1411
aS't'
aS'bioprinting'
p1412
aS'technology'
p1413
aS'scientific'
p1414
aS'assumptions'
p1415
aS'analysis'
p1416
aS'Currently'
p1417
aS'relationships'
p1418
aS'bioprinting'
p1419
aS'dimensional'
p1420
aS'cell'
p1421
aS'cultures'
p1422
aS'informatics'
p1423
aS'assay'
p1424
aS'validation'
p1425
aS'characterized'
p1426
aS'commercialized'
p1427
aS'scientific'
p1428
aS'informatics'
p1429
aS'solutions'
p1430
aS'bioprinting'
p1431
aS'workflows'
p1432
aS'Also'
p1433
aS'new'
p1434
aS'R&D'
p1435
aS'methodology'
p1436
aS'requires'
p1437
aS'confirmation'
p1438
aS'testing'
p1439
aS'prior'
p1440
aS'acceptance'
p1441
aS'especially'
p1442
aS'larger'
p1443
aS'organizations'
p1444
aS'legacy'
p1445
aS'assay'
p1446
aS'results'
p1447
aS'techniques'
p1448
aag1146
assg364
(lp1449
S'3D Bioprinted Organ Transplants'
p1450
asg367
S'Regenovo Biotechnology'
p1451
sb(dp1452
s(ientity
company
p1453
(dp1454
g14
g15
sg364
(lp1455
g366
asg367
S'Toppan Printing'
p1456
sb(dp1457
s(ientity
company
p1458
(dp1459
g14
(dp1460
g16
(lp1461
S'Inclusive A variety'
p1462
aS'companies'
p1463
aS'Apple Samsung Sony'
p1464
aS'Intel'
p1465
aS'3D technologies'
p1466
aS'smartphone'
p1467
aS'mobile devices'
p1468
aS'3D technologies'
p1469
aS'automotive and industrial markets'
p1470
aS'autonomous vehicles surveillance cameras'
p1471
aS'drones'
p1472
aS'many different ways'
p1473
aS'technology'
p1474
aS'multiple cameras lenses'
p1475
aS'shots'
p1476
aS'example'
p1477
aS'Huawei Lenovo'
p1478
aS'Xiaomi'
p1479
aS'typical simple dual-camera approach'
p1480
aS'Huawei P10 Lenovo s Moto Z'
p1481
aS'Xiaomi Mi'
p1482
aS'Samsung'
p1483
aS'fast-focus camera'
p1484
aS'its Galaxy S series'
p1485
aS'smartphone'
p1486
aS'multiple shots'
p1487
aS'different focuses'
p1488
aS'combination'
p1489
aS'one image file'
p1490
aS'Apple'
p1491
aS'iPhone'
p1492
aS'dual cameras'
p1493
aS'image quality'
p1494
aS'it'
p1495
aS'3D function'
p1496
aS'future'
p1497
aS'Apple'
p1498
aS'Israeli camera technology company'
p1499
aS'Imaging'
p1500
aS'April'
p1501
aS'LinX'
p1502
aS'3D camera technologies'
p1503
aS'four-image sensors'
p1504
aS'Google s Project Tango'
p1505
aS'both an image sensor'
p1506
aS'infrared sensor'
p1507
aS'technology'
p1508
aS'one image sensor'
p1509
aS'infrared sensor'
p1510
aS'depth'
p1511
aS'depth'
p1512
aS'traditional camera s image data'
p1513
aS'technology'
p1514
aS'Microsoft s Kinect platform'
p1515
aS'PrimeSense'
p1516
aS'Intel s RealSense'
p1517
aS'Intel'
p1518
aS'RealSense platform'
p1519
aS'structured-light technology'
p1520
aS'ultramobile PCs'
p1521
aS'technology'
p1522
aS'Dell Inspiron 15-inch 5000 series'
p1523
aS'HP Envy series'
p1524
aS'Toshiba'
p1525
aS'single-lens 3D camera solution'
p1526
aS'color filters'
p1527
aS'image quality'
p1528
aS'dual-camera approach'
p1529
aS'cost'
p1530
aS'It'
p1531
aS'devices'
p1532
aS'image quality'
p1533
aS'top priority'
p1534
aS'robots eyes'
p1535
aS'3D cameras'
p1536
aS'continuous-shooting and image-merging capabilities'
p1537
aS'3D images'
p1538
aS'objects'
p1539
aS'many uses'
p1540
aS'objects'
p1541
aS'many business-related experiences'
p1542
aS'items'
p1543
aS'hotel rooms'
p1544
aS'new products'
p1545
aS'3D video cameras'
p1546
aS'analytical abilities'
p1547
aS'gesture recognition facial recognition'
p1548
aS'related control systems'
p1549
aS'biometric authentication'
p1550
aS'face and iris identification'
p1551
aS'Implementation'
p1552
aS'uses'
p1553
aS'computational resources'
p1554
aS'application processors'
p1555
aS'long-term market opportunity'
p1556
aS'embedded modules'
p1557
aS'connected devices'
p1558
aS'smartphones'
p1559
aS'ultramobile PCs'
p1560
aS'virtual reality/augmented reality head-mounted-displays smart TVs'
p1561
aS'automotive and industrial equipment'
p1562
aS'3D cameras'
p1563
aS'developers'
p1564
aS'software development kits'
p1565
aS'example'
p1566
aS'relation'
p1567
aS'online shopping experience'
p1568
aS'real-estate activities'
p1569
aS'3D camera technologies'
p1570
aS'impact'
p1571
aS'conventional camera technologies'
p1572
aS'smartphones'
p1573
aS'ultramobile PCs'
p1574
aS'example'
p1575
aS'users'
p1576
aS'focus'
p1577
aS'photographs'
p1578
aS'they'
p1579
aS'adjustments'
p1580
aS'technology'
p1581
aS'them'
p1582
aS'3D images'
p1583
aS'technologies'
p1584
aS'more-advanced gesture controls'
p1585
aS'user interfaces'
p1586
aS'They'
p1587
aS'uses'
p1588
aS'fields'
p1589
aS'security (object detection and identification) transport'
p1590
aS'(driver assistance) robotics'
p1591
aS'machine vision'
p1592
aS'autonomous operation'
p1593
aS'entertainment 3D camera technology'
p1594
aS'opportunities'
p1595
aS'semiconductor vendors'
p1596
aS'fields'
p1597
aS'image sensors'
p1598
aS'application processors'
p1599
aS'it'
p1600
aS'opportunities'
p1601
aS'smartphone'
p1602
aS'ultramobile PC vendors'
p1603
aS'their products'
p1604
aS'epochal year'
p1605
aS'3D technologies'
p1606
aS'major smartphone companies'
p1607
aS'Apple'
p1608
aS'smartphones'
p1609
aS'3D capability'
p1610
aS'Service providers'
p1611
aS'technology s development'
p1612
aS'possible uses'
p1613
aS'new types'
p1614
aS'offerings'
p1615
aS'software applications'
p1616
aS'cloud services'
p1617
aS'Device manufacturers'
p1618
aS'3D cameras'
p1619
aS'part'
p1620
aS'ecosystem'
p1621
aS'applications'
p1622
aS'They'
p1623
aS'value chain'
p1624
aS'They'
p1625
aS'their value proposition'
p1626
aS'terms'
p1627
aS'devices'
p1628
aS'specifications'
p1629
aS'services'
p1630
aS'usefulness'
p1631
aS'therefore adoption'
p1632
aS'3D cameras'
p1633
aS'example'
p1634
aS'they'
p1635
aS'cameras'
p1636
aS'3D printing service bureaus'
p1637
aS'objects'
p1638
aS'customized ways'
p1639
aS'Businesses'
p1640
aS'3D data'
p1641
aS'suitable merchandise'
p1642
aS'customers'
p1643
asg115
(lp1644
S'Apple Samsung Sony'
p1645
aS'Intel'
p1646
aS'Huawei Lenovo'
p1647
aS'Xiaomi'
p1648
aS'Xiaomi Mi 6 Plus'
p1649
aS'Samsung'
p1650
aS'Galaxy S'
p1651
aS'one'
p1652
aS'Apple'
p1653
aS'iPhone 7 Plus'
p1654
aS'2016'
p1655
aS'Apple'
p1656
aS'Israeli'
p1657
aS'LinX Imaging'
p1658
aS'April 2015'
p1659
aS'four'
p1660
aS'Google s Project Tango'
p1661
aS'one'
p1662
aS'Microsoft'
p1663
aS'PrimeSense'
p1664
aS'Intel'
p1665
aS'Intel'
p1666
aS'RealSense'
p1667
aS'Dell Inspiron'
p1668
aS'5000'
p1669
aS'Toshiba'
p1670
aS'2016'
p1671
aS'epochal year'
p1672
aS'Apple'
p1673
asg128
(lp1674
S'All'
p1675
aS'Inclusive'
p1676
aS'A'
aS'variety'
p1677
aS'companies'
p1678
aS'Apple'
p1679
aS'Samsung'
p1680
aS'Sony'
p1681
aS'Intel'
p1682
aS'developing'
p1683
aS'3D'
p1684
aS'technologies'
p1685
aS'smartphone'
p1686
aS'mobile'
p1687
aS'devices'
p1688
aS'3D'
p1689
aS'technologies'
p1690
aS'automotive'
p1691
aS'industrial'
p1692
aS'markets'
p1693
aS'autonomous'
p1694
aS'vehicles'
p1695
aS'surveillance'
p1696
aS'cameras'
p1697
aS'drones'
p1698
aS'There'
p1699
aS'different'
p1700
aS'ways'
p1701
aS'implementing'
p1702
aS'technology'
p1703
aS'multiple'
p1704
aS'cameras'
p1705
aS'lenses'
p1706
aS'shots'
p1707
aS'For'
p1708
aS'example'
p1709
aS'Huawei'
p1710
aS'Lenovo'
p1711
aS'Xiaomi'
p1712
aS'typical'
p1713
aS'simple'
p1714
aS'dual'
p1715
aS'camera'
p1716
aS'approach'
p1717
aS'Huawei'
p1718
aS'P10'
p1719
aS'Lenovo'
p1720
aS's'
aS'Moto'
p1721
aS'Z'
aS'Xiaomi'
p1722
aS'Mi'
p1723
aS'6'
aS'Plus'
p1724
aS'Samsung'
p1725
aS'uses'
p1726
aS'fast'
p1727
aS'focus'
p1728
aS'camera'
p1729
aS'Galaxy'
p1730
aS'S'
aS'series'
p1731
aS'smartphone'
p1732
aS'multiple'
p1733
aS'shots'
p1734
aS'different'
p1735
aS'focuses'
p1736
aS'combination'
p1737
aS'image'
p1738
aS'file'
p1739
aS'Apple'
p1740
aS'released'
p1741
aS'iPhone'
p1742
aS'7'
aS'Plus'
p1743
aS'dual'
p1744
aS'cameras'
p1745
aS'2016'
p1746
aS'improving'
p1747
aS'image'
p1748
aS'quality'
p1749
aS'provide'
p1750
aS'3D'
p1751
aS'function'
p1752
aS'future'
p1753
aS'Apple'
p1754
aS'acquired'
p1755
aS'Israeli'
p1756
aS'camera'
p1757
aS'technology'
p1758
aS'company'
p1759
aS'LinX'
p1760
aS'Imaging'
p1761
aS'April'
p1762
aS'2015'
p1763
aS'LinX'
p1764
aS'offers'
p1765
aS'3D'
p1766
aS'camera'
p1767
aS'technologies'
p1768
aS'two-'
p1769
aS'three-'
p1770
aS'image'
p1771
aS'sensors'
p1772
aS'Google'
p1773
aS's'
aS'Project'
p1774
aS'Tango'
p1775
aS'uses'
p1776
aS'image'
p1777
aS'sensor'
p1778
aS'infrared'
p1779
aS'sensor'
p1780
aS'This'
p1781
aS'technology'
p1782
aS'utilizes'
p1783
aS'image'
p1784
aS'sensor'
p1785
aS'coupled'
p1786
aS'infrared'
p1787
aS'sensor'
p1788
aS'acquire'
p1789
aS'depth'
p1790
aS'overlays'
p1791
aS'depth'
p1792
aS'map'
p1793
aS'traditional'
p1794
aS'camera'
p1795
aS's'
aS'image'
p1796
aS'data'
p1797
aS'This'
p1798
aS'technology'
p1799
aS'called'
p1800
aS'structured'
p1801
aS'light'
p1802
aS'Microsoft'
p1803
aS's'
aS'Kinect'
p1804
aS'platform'
p1805
aS'developed'
p1806
aS'PrimeSense'
p1807
aS'Intel'
p1808
aS's'
aS'RealSense'
p1809
aS'Intel'
p1810
aS'provides'
p1811
aS'RealSense'
p1812
aS'platform'
p1813
aS'structured'
p1814
aS'light'
p1815
aS'technology'
p1816
aS'Some'
p1817
aS'ultramobile'
p1818
aS'PCs'
p1819
aS'embedded'
p1820
aS'technology'
p1821
aS'Dell'
p1822
aS'Inspiron'
p1823
aS'15-inch'
p1824
aS'5000'
p1825
aS'series'
p1826
aS'HP'
p1827
aS'Envy'
p1828
aS'series'
p1829
aS'Toshiba'
p1830
aS'developing'
p1831
aS'single'
p1832
aS'lens'
p1833
aS'3D'
p1834
aS'camera'
p1835
aS'solution'
p1836
aS'color'
p1837
aS'filters'
p1838
aS'The'
p1839
aS'image'
p1840
aS'quality'
p1841
aS'dual'
p1842
aS'camera'
p1843
aS'approach'
p1844
aS'cost'
p1845
aS'lower'
p1846
aS'It'
p1847
aS'suitable'
p1848
aS'devices'
p1849
aS'image'
p1850
aS'quality'
p1851
aS'priority'
p1852
aS'robots'
p1853
aS'eyes'
p1854
aS'3D'
p1855
aS'cameras'
p1856
aS'continuous'
p1857
aS'shooting'
p1858
aS'image'
p1859
aS'merging'
p1860
aS'capabilities'
p1861
aS'restructure'
p1862
aS'3D'
p1863
aS'images'
p1864
aS'objects'
p1865
aS'This'
p1866
aS'uses'
p1867
aS'measuring'
p1868
aS'objects'
p1869
aS'improve'
p1870
aS'business'
p1871
aS'related'
p1872
aS'experiences'
p1873
aS'shopping'
p1874
aS'items'
p1875
aS'online'
p1876
aS'searching'
p1877
aS'hotel'
p1878
aS'rooms'
p1879
aS'introducing'
p1880
aS'new'
p1881
aS'products'
p1882
aS'online'
p1883
aS'3D'
p1884
aS'video'
p1885
aS'cameras'
p1886
aS'analytical'
p1887
aS'abilities'
p1888
aS'enable'
p1889
aS'gesture'
p1890
aS'recognition'
p1891
aS'facial'
p1892
aS'recognition'
p1893
aS'related'
p1894
aS'control'
p1895
aS'systems'
p1896
aS'biometric'
p1897
aS'authentication'
p1898
aS'face'
p1899
aS'iris'
p1900
aS'identification'
p1901
aS'Implementation'
p1902
aS'uses'
p1903
aS'require'
p1904
aS'computational'
p1905
aS'resources'
p1906
aS'application'
p1907
aS'processors'
p1908
aS'The'
p1909
aS'long'
p1910
aS'term'
p1911
aS'market'
p1912
aS'opportunity'
p1913
aS'lies'
p1914
aS'embedded'
p1915
aS'modules'
p1916
aS'connected'
p1917
aS'devices'
p1918
aS'smartphones'
p1919
aS'ultramobile'
p1920
aS'PCs'
p1921
aS'virtual'
p1922
aS'reality'
p1923
aS'augmented'
p1924
aS'reality'
p1925
aS'head'
p1926
aS'mounted'
p1927
aS'displays'
p1928
aS'smart'
p1929
aS'TVs'
p1930
aS'automotive'
p1931
aS'industrial'
p1932
aS'equipment'
p1933
aS'3D'
p1934
aS'cameras'
p1935
aS'developers'
p1936
aS'software'
p1937
aS'development'
p1938
aS'kits'
p1939
aS'example'
p1940
aS'relation'
p1941
aS'online'
p1942
aS'shopping'
p1943
aS'experience'
p1944
aS'real'
p1945
aS'estate'
p1946
aS'activities'
p1947
aS'3D'
p1948
aS'camera'
p1949
aS'technologies'
p1950
aS'impact'
p1951
aS'conventional'
p1952
aS'camera'
p1953
aS'technologies'
p1954
aS'especially'
p1955
aS'smartphones'
p1956
aS'ultramobile'
p1957
aS'PCs'
p1958
aS'For'
p1959
aS'example'
p1960
aS'users'
p1961
aS'longer'
p1962
aS'need'
p1963
aS'worry'
p1964
aS'focus'
p1965
aS'taking'
p1966
aS'photographs'
p1967
aS'able'
p1968
aS'adjustments'
p1969
aS'later'
p1970
aS'Of'
p1971
aS'course'
p1972
aS'technology'
p1973
aS'enable'
p1974
aS'3D'
p1975
aS'images'
p1976
aS'These'
p1977
aS'technologies'
p1978
aS'enable'
p1979
aS'advanced'
p1980
aS'gesture'
p1981
aS'controls'
p1982
aS'interacting'
p1983
aS'user'
p1984
aS'interfaces'
p1985
aS'They'
p1986
aS'find'
p1987
aS'uses'
p1988
aS'fields'
p1989
aS'security'
p1990
aS'object'
p1991
aS'detection'
p1992
aS'identification'
p1993
aS'transport'
p1994
aS'driver'
p1995
aS'assistance'
p1996
aS'robotics'
p1997
aS'machine'
p1998
aS'vision'
p1999
aS'autonomous'
p2000
aS'operation'
p2001
aS'entertainment'
p2002
aS'3D'
p2003
aS'camera'
p2004
aS'technology'
p2005
aS'creates'
p2006
aS'opportunities'
p2007
aS'semiconductor'
p2008
aS'vendors'
p2009
aS'fields'
p2010
aS'image'
p2011
aS'sensors'
p2012
aS'application'
p2013
aS'processors'
p2014
aS'More'
p2015
aS'generally'
p2016
aS'creates'
p2017
aS'opportunities'
p2018
aS'smartphone'
p2019
aS'ultramobile'
p2020
aS'PC'
p2021
aS'vendors'
p2022
aS'differentiate'
p2023
aS'products'
p2024
aS'2016'
p2025
aS'epochal'
p2026
aS'year'
p2027
aS'3D'
p2028
aS'technologies'
p2029
aS'major'
p2030
aS'smartphone'
p2031
aS'companies'
p2032
aS'Apple'
p2033
aS'released'
p2034
aS'smartphones'
p2035
aS'3D'
p2036
aS'capability'
p2037
aS'Service'
p2038
aS'providers'
p2039
aS'monitor'
p2040
aS'technology'
p2041
aS's'
aS'development'
p2042
aS'identify'
p2043
aS'possible'
p2044
aS'uses'
p2045
aS'new'
p2046
aS'types'
p2047
aS'offerings'
p2048
aS'employ'
p2049
aS'software'
p2050
aS'applications'
p2051
aS'cloud'
p2052
aS'services'
p2053
aS'Device'
p2054
aS'manufacturers'
p2055
aS'introduce'
p2056
aS'3D'
p2057
aS'cameras'
p2058
aS'ecosystem'
p2059
aS'applications'
p2060
aS'They'
p2061
aS'know'
p2062
aS'value'
p2063
aS'chain'
p2064
aS'They'
p2065
aS'understand'
p2066
aS'value'
p2067
aS'proposition'
p2068
aS'terms'
p2069
aS'offering'
p2070
aS'devices'
p2071
aS'specifications'
p2072
aS'services'
p2073
aS'increase'
p2074
aS'usefulness'
p2075
aS'adoption'
p2076
aS'3D'
p2077
aS'cameras'
p2078
aS'For'
p2079
aS'example'
p2080
aS'link'
p2081
aS'cameras'
p2082
aS'3D'
p2083
aS'printing'
p2084
aS'service'
p2085
aS'bureaus'
p2086
aS'enable'
p2087
aS'objects'
p2088
aS'reproduced'
p2089
aS'accessorized'
p2090
aS'customized'
p2091
aS'ways'
p2092
aS'Businesses'
p2093
aS'general'
p2094
aS'strive'
p2095
aS'use'
p2096
aS'3D'
p2097
aS'data'
p2098
aS'improve'
p2099
aS'workforce'
p2100
aS'collaboration'
p2101
aS'communicate'
p2102
aS'quickly'
p2103
aS'identify'
p2104
aS'suitable'
p2105
aS'merchandise'
p2106
aS'customers'
p2107
assg364
(lp2108
S'3D Cameras'
p2109
asg367
S'Intel'
p2110
sb(dp2111
s(ientity
company
p2112
(dp2113
g14
(dp2114
g16
(lp2115
S'Manufacturing Commercial 3D model creation software'
p2116
aS'3D CAD'
p2117
aS'late 1970s'
p2118
aS'3D printers'
p2119
aS'models'
p2120
aS'software developers'
p2121
aS'many approaches'
p2122
aS'3D model creation'
p2123
aS'type'
p2124
aS'software'
p2125
aS'online libraries'
p2126
aS'use'
p2127
aS'3D model creation software'
p2128
aS'experienced and novice users'
p2129
aS'Companies'
p2130
aS'Stratasys'
p2131
aS'(owners'
p2132
aS'SketchUp'
p2133
aS'challenge'
p2134
aS'online libraries'
p2135
aS'3D models'
p2136
aS'consumers'
p2137
aS'professionals'
p2138
aS'modeling'
p2139
aS'skills'
p2140
aS'3D printing'
p2141
aS'Gartner'
p2142
aS'such 3D model'
p2143
aS'users'
p2144
aS'models'
p2145
aS'dimensions'
p2146
aS'colors'
p2147
aS'constraints'
p2148
aS'ability'
p2149
aS'quality 3D prints'
p2150
aS'vendors'
p2151
aS'Adobe'
p2152
aS'Autodesk'
p2153
aS'use'
p2154
aS'3D content'
p2155
aS'software functionality'
p2156
aS'3D geometry'
p2157
aS'quality'
p2158
aS'3D prints'
p2159
aS'they'
p2160
aS'progress'
p2161
aS'3D printing requires'
p2162
aS'(1) the software'
p2163
aS'3D models'
p2164
aS'software'
p2165
aS'3D printer'
p2166
aS'models'
p2167
aS'machine instructions'
p2168
aS'printing materials'
p2169
aS'3D modeling technology'
p2170
aS'strategic priority'
p2171
aS'endeavor'
p2172
aS'future growth'
p2173
aS'progress'
p2174
aS'Companies'
p2175
aS'templates'
p2176
aS'standards'
p2177
aS'3D modeling'
p2178
aS'greater investments'
p2179
aS'training'
p2180
aS'growing demand'
p2181
aS'more breakthroughs'
p2182
aS'Individual users'
p2183
aS'organizations'
p2184
aS'3D printing'
p2185
aS'software'
p2186
aS'part'
p2187
aS'3D-printing purchase'
p2188
aS'3D printing'
p2189
aS'such software'
p2190
aS'usability'
p2191
aS'such software'
p2192
aS'your target audience'
p2193
aS'Test'
p2194
aS'types'
p2195
aS'3D models users'
p2196
aS'type'
p2197
aS'3D printers'
p2198
aS'they'
p2199
aS'materials'
p2200
aS'confidence'
p2201
aS'software'
p2202
aS'types'
p2203
aS'models'
p2204
aS'you'
p2205
aS'your customers'
p2206
aS'input'
p2207
aS'quality'
p2208
aS'your customers'
p2209
aS'model checkers'
p2210
aS'3D models'
p2211
aS'sufficient quality'
p2212
aS'connecting surfaces'
p2213
aS'model'
p2214
aS'geometric features'
p2215
aS'model'
p2216
aS'Explore consumer-oriented libraries'
p2217
aS'3D modeling tools'
p2218
aS'Trimble s SketchUp'
p2219
aS'easy means'
p2220
aS'printable 3D models'
p2221
a(lp2222
S'design manufacture'
p2223
aS'implementation'
p2224
aS'implants'
p2225
aS'types'
p2226
aS'advocates'
p2227
aS'market awareness'
p2228
aS'medical community'
p2229
aS'more successes'
p2230
aS'Commercial vendor healthcare business units'
p2231
aS'prestige research institutions'
p2232
aS'technology'
p2233
aS'Mayo Clinic'
p2234
aS'its first 3DP hip replacement'
p2235
aS'3DP- aided face transplant'
p2236
aS'Embody'
p2237
aS'Imperial College London'
p2238
aS'leading innovator'
p2239
aS'integrating models'
p2240
aS'implants'
p2241
aS'individualized surgical tools'
p2242
aS'New 3DP transplant'
p2243
aS'repair successes'
p2244
aS'many patient circumstances'
p2245
aS'domain'
p2246
aS'top clinical research institutions'
p2247
aS'small pick-up'
p2248
aS'mainstream HDO interest vendor investments'
p2249
aS'growing awareness'
p2250
aS'expanded vendor support'
p2251
aS'we'
p2252
aS'peak'
p2253
aS'We'
p2254
aS'expanded uses'
p2255
aS'3DP implants'
p2256
aS'faster paces'
p2257
aS'adoption'
p2258
aS'medical innovation'
p2259
aS'We'
p2260
aS'use cases'
p2261
aS'technology capabilities'
p2262
aS'years'
p2263
aS'presurgery anatomical models'
p2264
aS'faster adoption trajectory'
p2265
aS'overlap'
p2266
aS'vendors'
p2267
aS'sites'
p2268
aS'that approach'
p2269
aS'implants'
p2270
aS'tools'
p2271
aS'integrated solutions'
p2272
aS'material science'
p2273
aS'space'
p2274
aS'different microstructures materials meshes'
p2275
aS'chemistries'
p2276
aS'implants'
p2277
aS'themselves'
p2278
aS'complexity'
p2279
aS'capabilities'
p2280
aS'it'
p2281
aS'complexity'
p2282
aS'practice'
p2283
aS'regulatory approval'
p2284
aS'emergency situations'
p2285
aS'it'
p2286
aS'hurdle'
p2287
aS'Payer endorsement/reimbursement'
p2288
aS'even trickier topic'
p2289
aS'highly customized approach'
p2290
aS'Physicians'
p2291
aS'insurance'
p2292
aS'hips'
p2293
aS'knees'
p2294
aS'same rate'
p2295
aS'traditional implants'
p2296
aS'caveat'
p2297
aS'patient'
p2298
aS'scans'
p2299
aS'design'
p2300
aS'diagnosis'
p2301
aS'Regional 3DP creation/distribution centers'
p2302
aS'appeal'
p2303
aS'smaller markets'
p2304
aS'Examples'
p2305
aS'implants'
p2306
aS'titanium sternum'
p2307
aS'Stanford bladder reconstruction'
p2308
aS'Beijing Third University Hospital spinal implant'
p2309
aS'(  3D printed ankle bone'
p2310
aS'hospital'
p2311
aS'Hong Kong'
p2312
aS'Facial transplant'
p2313
aS'reconstruction'
p2314
aS'Mayo Clinic'
p2315
aS'Implants'
p2316
aS'big business'
p2317
aS'big medical impact'
p2318
aS'Hip'
p2319
aS'knee replacements'
p2320
aS'most common hospital procedures'
p2321
aS'world'
p2322
aS'U.S.'
p2323
aS'year'
p2324
aS'England'
p2325
aS'Wales'
p2326
aS'3DP technology'
p2327
aS'implants'
p2328
aS'big boost'
p2329
aS'3DP s importance'
p2330
aS'darlings'
p2331
aS'3DP publicity'
p2332
aS'total potential impact'
p2333
aS'patients'
p2334
aS'precision 3D printed implants'
p2335
aS'related items'
p2336
aS'(precise and personalized models instruments'
p2337
aS'surgery plans'
p2338
aS'We'
p2339
aS'its benefit rating'
p2340
aS'breadth'
p2341
aS'potential impact'
p2342
aS'life'
p2343
aS'quality'
p2344
aS'life'
p2345
aS'It'
p2346
aS'CIOs'
p2347
aS'Gartner'
p2348
aS'medical uses'
p2349
aS'topic'
p2350
aS'CIO leadership'
p2351
aS'telemedicine'
p2352
aS'virtual care'
p2353
aS'expanding area'
p2354
aS'wide range'
p2355
aS'current emerging and visionary medical uses'
p2356
aS'users'
p2357
aS'need'
p2358
aS'enterprisewide orchestra leader'
p2359
aS'good approach'
p2360
aS'staff'
p2361
aS'state'
p2362
aS'art'
p2363
aS'surgeons'
p2364
aS'proposed approach'
p2365
aS'strategic roadmap'
p2366
aS'Early leaders'
p2367
aS'innovation lab'
p2368
aS'technologies'
p2369
aS'pilots'
p2370
aS'multiple use cases'
p2371
aS'increasing number'
p2372
aS'CIOs'
p2373
aS'responsibility'
p2374
aS'clinical engineering'
p2375
aS'biomed technicians'
p2376
aS'CIOs'
p2377
aS'IT leaders'
p2378
aS'vendor relationship'
p2379
aS'site'
p2380
aag2222
asg115
(lp2381
S'CAD'
p2382
aS'late 1970s'
p2383
aS'1980s'
p2384
aS'Today'
p2385
aS'Stratasys i.materialise'
p2386
aS'SketchUp'
p2387
aS'Gartner'
p2388
aS'Adobe'
p2389
aS'Autodesk'
p2390
aS'1'
aS'2'
aS'Individual'
p2391
aS'Explore'
p2392
aS'Adobe s Photoshop CC Autodesk s 123D'
p2393
aS'Trimble s SketchUp'
p2394
a(lp2395
S'Inclusive Incorporating'
p2396
aS'Mayo Clinic'
p2397
aS'first'
p2398
aS'3DP-'
p2399
aS'2017'
p2400
aS'Imperial College London'
p2401
aS'HDO'
p2402
aS'2017'
p2403
aS'3DP'
p2404
aS'years'
p2405
aS' Stanford'
p2406
aS' Beijing Third University Hospital'
p2407
aS' '
aS'Hong Kong'
p2408
aS'Facial'
p2409
aS'Mayo Clinic'
p2410
aS'3DP'
p2411
aS'more than 1 million'
p2412
aS'annually'
p2413
aS'U.S.'
p2414
aS'around 160'
p2415
aS'England'
p2416
aS'Wales'
p2417
aS'3DP'
p2418
aS'3DP'
p2419
aS'one'
p2420
aS'3DP'
p2421
aS'Gartner'
p2422
aS'CIO'
p2423
aS'3DP'
p2424
aS'3DP'
p2425
aag2395
asg128
(lp2426
S'Manufacturing'
p2427
aS'Commercial'
p2428
aS'3D'
p2429
aS'model'
p2430
aS'creation'
p2431
aS'software'
p2432
aS'3D'
p2433
aS'CAD'
p2434
aS'available'
p2435
aS'late'
p2436
aS'1970s'
p2437
aS'3D'
p2438
aS'printers'
p2439
aS'interpret'
p2440
aS'models'
p2441
aS'printing'
p2442
aS'available'
p2443
aS'1980s'
p2444
aS'Today'
p2445
aS'software'
p2446
aS'developers'
p2447
aS'approaches'
p2448
aS'3D'
p2449
aS'model'
p2450
aS'creation'
p2451
aS'This'
p2452
aS'type'
p2453
aS'software'
p2454
aS'continues'
p2455
aS'rapidly'
p2456
aS'adopted'
p2457
aS'3D'
p2458
aS'printing'
p2459
aS'online'
p2460
aS'libraries'
p2461
aS'facilitating'
p2462
aS'use'
p2463
aS'3D'
p2464
aS'model'
p2465
aS'creation'
p2466
aS'software'
p2467
aS'experienced'
p2468
aS'novice'
p2469
aS'users'
p2470
aS'alike'
p2471
aS'Companies'
p2472
aS'Stratasys'
p2473
aS'i.materialise'
p2474
aS'Trimble'
p2475
aS'owners'
p2476
aS'SketchUp'
p2477
aS'addressing'
p2478
aS'challenge'
p2479
aS'offering'
p2480
aS'online'
p2481
aS'libraries'
p2482
aS'3D'
p2483
aS'models'
p2484
aS'consumers'
p2485
aS'professionals'
p2486
aS'modeling'
p2487
aS'skills'
p2488
aS'download'
p2489
aS'3D'
p2490
aS'printing'
p2491
aS'Gartner'
p2492
aS'expects'
p2493
aS'3D'
p2494
aS'model'
p2495
aS'libraries'
p2496
aS'evolve'
p2497
aS'users'
p2498
aS'customize'
p2499
aS'models'
p2500
aS'dimensions'
p2501
aS'colors'
p2502
aS'constraints'
p2503
aS'retain'
p2504
aS'ability'
p2505
aS'produce'
p2506
aS'quality'
p2507
aS'3D'
p2508
aS'prints'
p2509
aS'Also'
p2510
aS'vendors'
p2511
aS'Adobe'
p2512
aS'Autodesk'
p2513
aS'offering'
p2514
aS'easier'
p2515
aS'use'
p2516
aS'tools'
p2517
aS'create'
p2518
aS'3D'
p2519
aS'content'
p2520
aS'printed'
p2521
aS'However'
p2522
aS'software'
p2523
aS'functionality'
p2524
aS'evaluate'
p2525
aS'3D'
p2526
aS'geometry'
p2527
aS'quality'
p2528
aS'3D'
p2529
aS'prints'
p2530
aS'produce'
p2531
aS'work'
p2532
aS'progress'
p2533
aS'3D'
p2534
aS'printing'
p2535
aS'requires'
p2536
aS'1'
aS'software'
p2537
aS'create'
p2538
aS'import'
p2539
aS'3D'
p2540
aS'models'
p2541
aS'printed'
p2542
aS'2'
aS'software'
p2543
aS'3D'
p2544
aS'printer'
p2545
aS'uses'
p2546
aS'convert'
p2547
aS'models'
p2548
aS'machine'
p2549
aS'instructions'
p2550
aS'needed'
p2551
aS'deposit'
p2552
aS'process'
p2553
aS'printing'
p2554
aS'materials'
p2555
aS'Therefore'
p2556
aS'3D'
p2557
aS'modeling'
p2558
aS'technology'
p2559
aS'strategic'
p2560
aS'priority'
p2561
aS'endeavor'
p2562
aS'depending'
p2563
aS'3D'
p2564
aS'printing'
p2565
aS'future'
p2566
aS'growth'
p2567
aS'progress'
p2568
aS'Companies'
p2569
aS'need'
p2570
aS'define'
p2571
aS'templates'
p2572
aS'standards'
p2573
aS'3D'
p2574
aS'modeling'
p2575
aS'possibly'
p2576
aS'greater'
p2577
aS'investments'
p2578
aS'training'
p2579
aS'Also'
p2580
aS'growing'
p2581
aS'demand'
p2582
aS'stimulate'
p2583
aS'breakthroughs'
p2584
aS'3D'
p2585
aS'modeling'
p2586
aS'approaches'
p2587
aS'Individual'
p2588
aS'users'
p2589
aS'organizations'
p2590
aS'investing'
p2591
aS'3D'
p2592
aS'printing'
p2593
aS'evaluate'
p2594
aS'software'
p2595
aS'3D'
p2596
aS'printing'
p2597
aS'purchase'
p2598
aS'3D'
p2599
aS'printing'
p2600
aS'software'
p2601
aS'Test'
p2602
aS'usability'
p2603
aS'software'
p2604
aS'target'
p2605
aS'audience'
p2606
aS'Test'
p2607
aS'types'
p2608
aS'3D'
p2609
aS'models'
p2610
aS'users'
p2611
aS'create'
p2612
aS'printed'
p2613
aS'depending'
p2614
aS'type'
p2615
aS'3D'
p2616
aS'printers'
p2617
aS'plan'
p2618
aS'use'
p2619
aS'materials'
p2620
aS'printing'
p2621
aS'Before'
p2622
aS'committing'
p2623
aS'purchase'
p2624
aS'establish'
p2625
aS'confidence'
p2626
aS'software'
p2627
aS'reliably'
p2628
aS'interpret'
p2629
aS'types'
p2630
aS'models'
p2631
aS'customers'
p2632
aS'use'
p2633
aS'input'
p2634
aS'deliver'
p2635
aS'quality'
p2636
aS'3D'
p2637
aS'printed'
p2638
aS'objects'
p2639
aS'customers'
p2640
aS'expect'
p2641
aS'Invest'
p2642
aS'model'
p2643
aS'checkers'
p2644
aS'validate'
p2645
aS'3D'
p2646
aS'models'
p2647
aS'suitable'
p2648
aS'sufficient'
p2649
aS'quality'
p2650
aS'print'
p2651
aS'connecting'
p2652
aS'surfaces'
p2653
aS'model'
p2654
aS'fit'
p2655
aS'seamlessly'
p2656
aS'geometric'
p2657
aS'features'
p2658
aS'model'
p2659
aS'acceptable'
p2660
aS'printing'
p2661
aS'Explore'
p2662
aS'consumer'
p2663
aS'oriented'
p2664
aS'libraries'
p2665
aS'3D'
p2666
aS'modeling'
p2667
aS'tools'
p2668
aS'Adobe'
p2669
aS's'
aS'Photoshop'
p2670
aS'CC'
p2671
aS'Autodesk'
p2672
aS's'
aS'123D'
p2673
aS'Trimble'
p2674
aS's'
aS'SketchUp'
p2675
aS'easy'
p2676
aS'means'
p2677
aS'producing'
p2678
aS'printable'
p2679
aS'3D'
p2680
aS'models'
p2681
a(lp2682
S'All'
p2683
aS'Inclusive'
p2684
aS'Incorporating'
p2685
aS'3DP'
p2686
aS'design'
p2687
aS'manufacture'
p2688
aS'implementation'
p2689
aS'implants'
p2690
aS'types'
p2691
aS'gaining'
p2692
aS'advocates'
p2693
aS'market'
p2694
aS'awareness'
p2695
aS'medical'
p2696
aS'community'
p2697
aS'successes'
p2698
aS'publicized'
p2699
aS'Commercial'
p2700
aS'vendor'
p2701
aS'healthcare'
p2702
aS'business'
p2703
aS'units'
p2704
aS'formed'
p2705
aS'prestige'
p2706
aS'research'
p2707
aS'institutions'
p2708
aS'invest'
p2709
aS'technology'
p2710
aS'Mayo'
p2711
aS'Clinic'
p2712
aS'completed'
p2713
aS'3DP'
p2714
aS'hip'
p2715
aS'replacement'
p2716
aS'advanced'
p2717
aS'performing'
p2718
aS'3DP-'
p2719
aS'aided'
p2720
aS'face'
p2721
aS'transplant'
p2722
aS'2017'
p2723
aS'Embody'
p2724
aS'spun'
p2725
aS'Imperial'
p2726
aS'College'
p2727
aS'London'
p2728
aS'leading'
p2729
aS'innovator'
p2730
aS'integrating'
p2731
aS'models'
p2732
aS'implants'
p2733
aS'individualized'
p2734
aS'surgical'
p2735
aS'tools'
p2736
aS'New'
p2737
aS'3DP'
p2738
aS'transplant'
p2739
aS'repair'
p2740
aS'successes'
p2741
aS'continue'
p2742
aS'pop'
p2743
aS'patient'
p2744
aS'circumstances'
p2745
aS'largely'
p2746
aS'domain'
p2747
aS'clinical'
p2748
aS'research'
p2749
aS'institutions'
p2750
aS'Based'
p2751
aS'small'
p2752
aS'pick'
p2753
aS'mainstream'
p2754
aS'HDO'
p2755
aS'interest'
p2756
aS'vendor'
p2757
aS'investments'
p2758
aS'growing'
p2759
aS'awareness'
p2760
aS'expanded'
p2761
aS'vendor'
p2762
aS'support'
p2763
aS'place'
p2764
aS'past'
p2765
aS'peak'
p2766
aS'2017'
p2767
aS'We'
p2768
aS'anticipate'
p2769
aS'expanded'
p2770
aS'uses'
p2771
aS'3DP'
p2772
aS'implants'
p2773
aS'faster'
p2774
aS'paces'
p2775
aS'adoption'
p2776
aS'experienced'
p2777
aS'medical'
p2778
aS'innovation'
p2779
aS'We'
p2780
aS'note'
p2781
aS'use'
p2782
aS'cases'
p2783
aS'continue'
p2784
aS'expand'
p2785
aS'technology'
p2786
aS'capabilities'
p2787
aS'evolve'
p2788
aS'years'
p2789
aS'Note'
p2790
aS'presurgery'
p2791
aS'anatomical'
p2792
aS'models'
p2793
aS'faster'
p2794
aS'adoption'
p2795
aS'trajectory'
p2796
aS'overlap'
p2797
aS'vendors'
p2798
aS'means'
p2799
aS'sites'
p2800
aS'applying'
p2801
aS'approach'
p2802
aS'increasingly'
p2803
aS'exposed'
p2804
aS'implants'
p2805
aS'tools'
p2806
aS'integrated'
p2807
aS'solutions'
p2808
aS'While'
p2809
aS'material'
p2810
aS'science'
p2811
aS'starting'
p2812
aS'ramp'
p2813
aS'space'
p2814
aS'different'
p2815
aS'microstructures'
p2816
aS'materials'
p2817
aS'meshes'
p2818
aS'chemistries'
p2819
aS'going'
p2820
aS'implants'
p2821
aS'Although'
p2822
aS'complexity'
p2823
aS'adds'
p2824
aS'capabilities'
p2825
aS'adds'
p2826
aS'complexity'
p2827
aS'translating'
p2828
aS'practice'
p2829
aS'Although'
p2830
aS'regulatory'
p2831
aS'approval'
p2832
aS'waived'
p2833
aS'emergency'
p2834
aS'situations'
p2835
aS'hurdle'
p2836
aS'Payer'
p2837
aS'endorsement'
p2838
aS'reimbursement'
p2839
aS'trickier'
p2840
aS'topic'
p2841
aS'highly'
p2842
aS'customized'
p2843
aS'approach'
p2844
aS'Physicians'
p2845
aS'report'
p2846
aS'insurance'
p2847
aS'covering'
p2848
aS'hips'
p2849
aS'knees'
p2850
aS'rate'
p2851
aS'traditional'
p2852
aS'implants'
p2853
aS'caveat'
p2854
aS'patient'
p2855
aS'pay'
p2856
aS'scans'
p2857
aS'design'
p2858
aS'diagnosis'
p2859
aS'Regional'
p2860
aS'3DP'
p2861
aS'creation'
p2862
aS'distribution'
p2863
aS'centers'
p2864
aS'developing'
p2865
aS'appeal'
p2866
aS'smaller'
p2867
aS'markets'
p2868
aS'Examples'
p2869
aS'3D'
p2870
aS'printed'
p2871
aS'implants'
p2872
aS'3D'
p2873
aS'printed'
p2874
aS'titanium'
p2875
aS'sternum'
p2876
aS'Stanford'
p2877
aS'bladder'
p2878
aS'reconstruction'
p2879
aS'Beijing'
p2880
aS'Third'
p2881
aS'University'
p2882
aS'Hospital'
p2883
aS'spinal'
p2884
aS'implant'
p2885
aS'3D'
p2886
aS'printed'
p2887
aS'ankle'
p2888
aS'bone'
p2889
aS'hospital'
p2890
aS'Hong'
p2891
aS'Kong'
p2892
aS'Facial'
p2893
aS'transplant'
p2894
aS'reconstruction'
p2895
aS'Mayo'
p2896
aS'Clinic'
p2897
aS'Implants'
p2898
aS'big'
p2899
aS'business'
p2900
aS'3DP'
p2901
aS'big'
p2902
aS'medical'
p2903
aS'impact'
p2904
aS'Hip'
p2905
aS'knee'
p2906
aS'replacements'
p2907
aS'common'
p2908
aS'hospital'
p2909
aS'procedures'
p2910
aS'world'
p2911
aS'1'
aS'million'
p2912
aS'performed'
p2913
aS'annually'
p2914
aS'U.S.'
p2915
aS'160'
p2916
aS'000'
p2917
aS'year'
p2918
aS'England'
p2919
aS'Wales'
p2920
aS'Thus'
p2921
aS'leveraging'
p2922
aS'3DP'
p2923
aS'technology'
p2924
aS'implants'
p2925
aS'big'
p2926
aS'boost'
p2927
aS'3DP'
p2928
aS's'
aS'importance'
p2929
aS'darlings'
p2930
aS'3DP'
p2931
aS'publicity'
p2932
aS'The'
p2933
aS'total'
p2934
aS'potential'
p2935
aS'impact'
p2936
aS'patients'
p2937
aS'precision'
p2938
aS'3D'
p2939
aS'printed'
p2940
aS'implants'
p2941
aS'related'
p2942
aS'items'
p2943
aS'precise'
p2944
aS'personalized'
p2945
aS'models'
p2946
aS'instruments'
p2947
aS'surgery'
p2948
aS'plans'
p2949
aS'stunning'
p2950
aS'We'
p2951
aS'moved'
p2952
aS'benefit'
p2953
aS'rating'
p2954
aS'high'
p2955
aS'transformational'
p2956
aS'breadth'
p2957
aS'potential'
p2958
aS'impact'
p2959
aS'life'
p2960
aS'quality'
p2961
aS'life'
p2962
aS'It'
p2963
aS'surprise'
p2964
aS'CIOs'
p2965
aS'Gartner'
p2966
aS'suggests'
p2967
aS'medical'
p2968
aS'uses'
p2969
aS'3DP'
p2970
aS'topic'
p2971
aS'CIO'
p2972
aS'leadership'
p2973
aS'However'
p2974
aS'like'
p2975
aS'telemedicine'
p2976
aS'virtual'
p2977
aS'care'
p2978
aS'3DP'
p2979
aS'expanding'
p2980
aS'area'
p2981
aS'wide'
p2982
aS'range'
p2983
aS'current'
p2984
aS'emerging'
p2985
aS'visionary'
p2986
aS'medical'
p2987
aS'uses'
p2988
aS'users'
p2989
aS'need'
p2990
aS'enterprisewide'
p2991
aS'orchestra'
p2992
aS'leader'
p2993
aS'A'
aS'good'
p2994
aS'approach'
p2995
aS'lend'
p2996
aS'staff'
p2997
aS'investigating'
p2998
aS'state'
p2999
aS'art'
p3000
aS'teaming'
p3001
aS'surgeons'
p3002
aS'especially'
p3003
aS'create'
p3004
aS'proposed'
p3005
aS'approach'
p3006
aS'strategic'
p3007
aS'roadmap'
p3008
aS'Early'
p3009
aS'leaders'
p3010
aS'created'
p3011
aS'innovation'
p3012
aS'lab'
p3013
aS'technologies'
p3014
aS'acquired'
p3015
aS'accessed'
p3016
aS'pilots'
p3017
aS'multiple'
p3018
aS'use'
p3019
aS'cases'
p3020
aS'Remember'
p3021
aS'increasing'
p3022
aS'number'
p3023
aS'CIOs'
p3024
aS'bear'
p3025
aS'responsibility'
p3026
aS'clinical'
p3027
aS'engineering'
p3028
aS'biomed'
p3029
aS'technicians'
p3030
aS'CIOs'
p3031
aS'IT'
p3032
aS'leaders'
p3033
aS'assist'
p3034
aS'identifying'
p3035
aS'negotiating'
p3036
aS'3DP'
p3037
aS'imaging'
p3038
aS'vendor'
p3039
aS'relationship'
p3040
aS'site'
p3041
aS'technology'
p3042
aS'manufacturing'
p3043
aS'suppliers'
p3044
aag2682
assg364
(lp3045
S'3D Print Creation Software'
p3046
asg367
S'Onshape'
p3047
sb(dp3048
s(ientity
company
p3049
(dp3050
g14
g2114
sg364
(lp3051
g3046
asg367
S'PTC'
p3052
sb(dp3053
s(ientity
company
p3054
(dp3055
g14
(dp3056
g16
g2222
sg115
g2395
sg128
g2682
ssg364
(lp3057
S'3D Printed Surgical Implants'
p3058
asg367
S'Royal Philips'
p3059
sb(dp3060
s(ientity
company
p3061
(dp3062
g14
g15
sg364
(lp3063
g366
asg367
S'Xerox (PARC)'
p3064
sb(dp3065
s(ientity
company
p3066
(dp3067
g14
(dp3068
g16
(lp3069
S'Inclusive Current use'
p3070
aS'3D geofencing'
p3071
aS'drones'
p3072
aS'them'
p3073
aS'restricted space'
p3074
aS'-fly zones'
p3075
aS'Administrators'
p3076
aS'triggers'
p3077
aS'specific boundaries/virtual area'
p3078
aS'alert'
p3079
aS'most basic drone cases'
p3080
aS'drone'
p3081
aS'restricted space'
p3082
aS'its GPS coordinates'
p3083
aS'Restricted or no-fly zones'
p3084
aS'air space/flight zones power plants'
p3085
aS'major parades'
p3086
aS'stadium events'
p3087
aS'forest fires'
p3088
aS'technology'
p3089
aS'3D geofencing'
p3090
aS'3D Robotics'
p3091
aS'DJI'
p3092
aS'geofencing system GEO'
p3093
aS'their geofencing systems'
p3094
aS'They'
p3095
aS'AirMap'
p3096
aS'real-time access'
p3097
aS'-fly zones'
p3098
aS'Regular update'
p3099
aS'new and changing restrictions'
p3100
aS'fly zones'
p3101
aS'addition'
p3102
aS'only high-end drones'
p3103
aS'cheaper consumer drones'
p3104
aS't'
aS'they'
p3105
aS'less experiences users'
p3106
aS'next couple'
p3107
aS'years'
p3108
aS'3D geofencing systems'
p3109
aS'drones'
p3110
aS'real time'
p3111
aS'early development phase'
p3112
aS'technology and regulations point'
p3113
aS'view'
p3114
aS'use'
p3115
aS'technology'
p3116
aS'variety'
p3117
aS'digital business outcomes'
p3118
aS'evolution'
p3119
aS'business operations'
p3120
aS'transformation changes'
p3121
aS'operating models'
p3122
aS'companies'
p3123
aS'time'
p3124
aS'money'
p3125
aS'technology'
p3126
aS'following use cases'
p3127
aS'drones'
p3128
aS'business'
p3129
aS'policy departments'
p3130
aS'surveillance'
p3131
aS'criminal tracking'
p3132
aS'monitoring'
p3133
aS'activities'
p3134
aS'prisons'
p3135
aS'Surveying'
p3136
aS'mapping'
p3137
aS'topographic surveys'
p3138
aS'site'
p3139
aS'scanning'
p3140
aS'construction'
p3141
aS'architectural companies'
p3142
aS'imagery'
p3143
aS'original sites'
p3144
aS'drones'
p3145
aS'building imagery'
p3146
aS'mistakes'
p3147
aS'they'
p3148
aS'UAV traffic management'
p3149
aS'Disaster relief'
p3150
aS'natural forest'
p3151
aS'civilian fires'
p3152
aS'UTM delivery services'
p3153
aS'drone operation'
p3154
aS'busy habitable location'
p3155
aS'addition'
p3156
aS'it'
p3157
aS'drones'
p3158
aS'your company'
p3159
aS'upcoming regulations'
p3160
aS'safety'
p3161
aS'privacy concerns'
p3162
aS'consumer use'
p3163
aS'drones'
p3164
aS'several business use cases'
p3165
aS'drones'
p3166
aS'police surveillance surveying'
p3167
aS'mapping'
p3168
aS'track'
p3169
aS'natural disasters'
p3170
aS'forest fires'
p3171
aS'progress'
p3172
aS'construction project'
p3173
aS'organizations'
p3174
aS'Identify specific use cases'
p3175
aS'drones'
p3176
aS'POC'
p3177
aS'proof'
p3178
aS'concept'
p3179
aS'ROI'
p3180
aS'needs'
p3181
aS'devices/drones'
p3182
aS'pilot'
p3183
aS'it'
p3184
aS'drone providers'
p3185
aS'mapping companies'
p3186
aS'your workers'
p3187
aS'real-time information'
p3188
aS'their project'
p3189
aS'data'
p3190
aS'drones'
p3191
aS'regulations'
p3192
aS'rules'
p3193
aS'drones'
p3194
aS'early creation phase'
p3195
aS'U.S.'
p3196
aS'China/Asia'
p3197
aS'Europe'
p3198
aS'EASA'
p3199
aS'new rules'
p3200
aS'small drones'
p3201
aS'final opinion/document'
p3202
aS'end'
p3203
asg115
(lp3204
S'Inclusive Current'
p3205
aS'DJI'
p3206
aS'GEO'
p3207
aS'AirMap'
p3208
aS'next couple of years'
p3209
aS'3'
aS'Identify'
p3210
aS'POC'
p3211
aS'U.S.'
p3212
aS'China'
p3213
aS'Asia'
p3214
aS'Europe'
p3215
aS'EASA'
p3216
asg128
(lp3217
S'All'
p3218
aS'Inclusive'
p3219
aS'Current'
p3220
aS'use'
p3221
aS'3D'
p3222
aS'geofencing'
p3223
aS'mainly'
p3224
aS'drones'
p3225
aS'prevent'
p3226
aS'entering'
p3227
aS'restricted'
p3228
aS'space'
p3229
aS'creating'
p3230
aS'fly'
p3231
aS'zones'
p3232
aS'Administrators'
p3233
aS'set'
p3234
aS'triggers'
p3235
aS'drone'
p3236
aS'enters'
p3237
aS'exits'
p3238
aS'specific'
p3239
aS'boundaries'
p3240
aS'virtual'
p3241
aS'area'
p3242
aS'alert'
p3243
aS'activated'
p3244
aS'In'
p3245
aS'basic'
p3246
aS'drone'
p3247
aS'cases'
p3248
aS'3D'
p3249
aS'geofencing'
p3250
aS'prevent'
p3251
aS'drone'
p3252
aS'taking'
p3253
aS'entering'
p3254
aS'restricted'
p3255
aS'space'
p3256
aS'based'
p3257
aS'GPS'
p3258
aS'coordinates'
p3259
aS'Restricted'
p3260
aS'fly'
p3261
aS'zones'
p3262
aS'air'
p3263
aS'space'
p3264
aS'flight'
p3265
aS'zones'
p3266
aS'power'
p3267
aS'plants'
p3268
aS'major'
p3269
aS'parades'
p3270
aS'stadium'
p3271
aS'events'
p3272
aS'forest'
p3273
aS'fires'
p3274
aS'etc'
p3275
aS'The'
p3276
aS'technology'
p3277
aS'3D'
p3278
aS'geofencing'
p3279
aS'new'
p3280
aS'leading'
p3281
aS'consumer'
p3282
aS'drone'
p3283
aS'manufactures'
p3284
aS'like'
p3285
aS'3D'
p3286
aS'Robotics'
p3287
aS'DJI'
p3288
aS'geofencing'
p3289
aS'system'
p3290
aS'GEO'
p3291
aS'working'
p3292
aS'improving'
p3293
aS'geofencing'
p3294
aS'systems'
p3295
aS'They'
p3296
aS'partnered'
p3297
aS'AirMap'
p3298
aS'provide'
p3299
aS'real'
p3300
aS'time'
p3301
aS'access'
p3302
aS'fly'
p3303
aS'zones'
p3304
aS'Regular'
p3305
aS'update'
p3306
aS'new'
p3307
aS'changing'
p3308
aS'restrictions'
p3309
aS'fly'
p3310
aS'zones'
p3311
aS'absolutely'
p3312
aS'essential'
p3313
aS'In'
p3314
aS'addition'
p3315
aS'high'
p3316
aS'end'
p3317
aS'drones'
p3318
aS'GPS'
p3319
aS'cheaper'
p3320
aS'consumer'
p3321
aS'drones'
p3322
aS'don'
p3323
aS't'
aS'tend'
p3324
aS'operated'
p3325
aS'experiences'
p3326
aS'users'
p3327
aS'However'
p3328
aS'couple'
p3329
aS'years'
p3330
aS'3D'
p3331
aS'geofencing'
p3332
aS'systems'
p3333
aS'drones'
p3334
aS'accurate'
p3335
aS'able'
p3336
aS'work'
p3337
aS'dynamically'
p3338
aS'real'
p3339
aS'time'
p3340
aS'potentially'
p3341
aS'talk'
p3342
aS'3D'
p3343
aS'geofencing'
p3344
aS'early'
p3345
aS'development'
p3346
aS'phase'
p3347
aS'technology'
p3348
aS'regulations'
p3349
aS'point'
p3350
aS'view'
p3351
aS'use'
p3352
aS'technology'
p3353
aS'essential'
p3354
aS'enabling'
p3355
aS'variety'
p3356
aS'digital'
p3357
aS'business'
p3358
aS'outcomes'
p3359
aS'evolution'
p3360
aS'business'
p3361
aS'operations'
p3362
aS'transformation'
p3363
aS'changes'
p3364
aS'operating'
p3365
aS'models'
p3366
aS'help'
p3367
aS'companies'
p3368
aS'save'
p3369
aS'time'
p3370
aS'money'
p3371
aS'The'
p3372
aS'technology'
p3373
aS'applied'
p3374
aS'following'
p3375
aS'use'
p3376
aS'cases'
p3377
aS'drones'
p3378
aS'Collaborating'
p3379
aS'business'
p3380
aS'policy'
p3381
aS'departments'
p3382
aS'surveillance'
p3383
aS'criminal'
p3384
aS'tracking'
p3385
aS'monitoring'
p3386
aS'activities'
p3387
aS'prisons'
p3388
aS'Surveying'
p3389
aS'mapping'
p3390
aS'topographic'
p3391
aS'surveys'
p3392
aS'site'
p3393
aS'scanning'
p3394
aS'For'
p3395
aS'construction'
p3396
aS'architectural'
p3397
aS'companies'
p3398
aS'imagery'
p3399
aS'original'
p3400
aS'sites'
p3401
aS'drones'
p3402
aS'overlaying'
p3403
aS'upcoming'
p3404
aS'building'
p3405
aS'imagery'
p3406
aS'helping'
p3407
aS'spot'
p3408
aS'mistakes'
p3409
aS'costly'
p3410
aS'fix'
p3411
aS'UAV'
p3412
aS'traffic'
p3413
aS'management'
p3414
aS'Disaster'
p3415
aS'relief'
p3416
aS'natural'
p3417
aS'forest'
p3418
aS'civilian'
p3419
aS'fires'
p3420
aS'UTM'
p3421
aS'delivery'
p3422
aS'services'
p3423
aS'3'
aS'G'
aS'geofencing'
p3424
aS'essential'
p3425
aS'drone'
p3426
aS'operation'
p3427
aS'busy'
p3428
aS'habitable'
p3429
aS'location'
p3430
aS'In'
p3431
aS'addition'
p3432
aS'essential'
p3433
aS'ensure'
p3434
aS'drones'
p3435
aS'company'
p3436
aS'comply'
p3437
aS'upcoming'
p3438
aS'regulations'
p3439
aS'address'
p3440
aS'safety'
p3441
aS'privacy'
p3442
aS'concerns'
p3443
aS'Beyond'
p3444
aS'consumer'
p3445
aS'use'
p3446
aS'drones'
p3447
aS'business'
p3448
aS'use'
p3449
aS'cases'
p3450
aS'emerging'
p3451
aS'drones'
p3452
aS'like'
p3453
aS'police'
p3454
aS'surveillance'
p3455
aS'surveying'
p3456
aS'mapping'
p3457
aS'keeping'
p3458
aS'track'
p3459
aS'natural'
p3460
aS'disasters'
p3461
aS'like'
p3462
aS'forest'
p3463
aS'fires'
p3464
aS'flooding'
p3465
aS'assisting'
p3466
aS'progress'
p3467
aS'construction'
p3468
aS'project'
p3469
aS'Therefore'
p3470
aS'organizations'
p3471
aS'need'
p3472
aS'Identify'
p3473
aS'specific'
p3474
aS'use'
p3475
aS'cases'
p3476
aS'drones'
p3477
aS'create'
p3478
aS'POC'
p3479
aS'proof'
p3480
aS'concept'
p3481
aS'reviewing'
p3482
aS'ROI'
p3483
aS'Consider'
p3484
aS'3D'
p3485
aS'geofencing'
p3486
aS'needs'
p3487
aS'implemented'
p3488
aS'ensure'
p3489
aS'devices'
p3490
aS'drones'
p3491
aS'pilot'
p3492
aS'GPS'
p3493
aS'enable'
p3494
aS'Work'
p3495
aS'drone'
p3496
aS'providers'
p3497
aS'mapping'
p3498
aS'companies'
p3499
aS'enable'
p3500
aS'workers'
p3501
aS'real'
p3502
aS'time'
p3503
aS'information'
p3504
aS'project'
p3505
aS'data'
p3506
aS'drones'
p3507
aS'Be'
p3508
aS'aware'
p3509
aS'regulations'
p3510
aS'rules'
p3511
aS'drones'
p3512
aS'early'
p3513
aS'creation'
p3514
aS'phase'
p3515
aS'differ'
p3516
aS'U.S.'
p3517
aS'versus'
p3518
aS'China'
p3519
aS'Asia'
p3520
aS'versus'
p3521
aS'Europe'
p3522
aS'EASA'
p3523
aS'proposed'
p3524
aS'new'
p3525
aS'rules'
p3526
aS'operating'
p3527
aS'small'
p3528
aS'drones'
p3529
aS'geofencing'
p3530
aS'final'
p3531
aS'opinion'
p3532
aS'document'
p3533
aS'end'
p3534
aS'2017'
p3535
assg364
(lp3536
S'3D Geofencing'
p3537
asg367
S'Parrot'
p3538
sb(dp3539
s(ientity
company
p3540
(dp3541
g14
g372
sg364
(lp3542
g1450
asg367
S'EOS'
p3543
sb(dp3544
s(ientity
company
p3545
(dp3546
g14
(dp3547
g16
(lp3548
S'Communications Leading vendors'
p3549
aS'switches'
p3550
aS'merchant silicon'
p3551
aS'custom ASICs'
p3552
aS'QSFP+ ports'
p3553
aS'QSFP28 ports'
p3554
aS'they'
p3555
aS'10/40Gbps products'
p3556
aS'their portfolios'
p3557
aS'complete feature'
p3558
aS'form-factor parity'
p3559
aS'constraints'
p3560
aS'product models'
p3561
aS'selected network design'
p3562
aS'other inventory reasons'
p3563
aS'vendors'
p3564
aS'pricing perspective'
p3565
aS'latest generation'
p3566
aS'switches'
p3567
aS'similar price points'
p3568
aS'ASP'
p3569
aS'40Gbps port'
p3570
aS'100GbE port'
p3571
aS'higher performance'
p3572
aS'path'
p3573
aS'preferable choice'
p3574
aS'enterprise'
p3575
aS'We'
p3576
aS'slow decline'
p3577
aS'(-7.3% CAGR'
p3578
aS'much faster decline'
p3579
aS'-27.3% CAGR'
p3580
aS'227.8% CAGR'
p3581
aS'its standardization'
p3582
aS'server OEMs'
p3583
aS'servers'
p3584
aS'standard 25G port'
p3585
aS'next 12 months'
p3586
aS'Availability'
p3587
aS'suitable optical transceivers'
p3588
aS'critical factor'
p3589
aS'widespread market adoption'
p3590
aS'25/50 Gbps'
p3591
aS'50 Gbps Ethernet technologies'
p3592
aS'introduction'
p3593
aS'100 Gbps'
p3594
aS'network core improving performance'
p3595
aS'optimization'
p3596
aS'number'
p3597
aS'tiers'
p3598
aS'25 Gbps'
p3599
aS'natural upgrade path'
p3600
aS'switch'
p3601
aS'availability'
p3602
aS'servers'
p3603
aS'native 25 Gbps connectivity'
p3604
aS'multiple cores'
p3605
aS'pipe'
p3606
aS'Gbps'
p3607
aS'40 Gbps'
p3608
aS'Vendors'
p3609
aS'higher speeds'
p3610
aS'selected new models'
p3611
aS'their new products'
p3612
aS'lower manufacturing costs'
p3613
aS'time feature parity'
p3614
aS'equivalent price points'
p3615
aS'10 Gbps'
p3616
aS'most common server connectivity speed'
p3617
aS'25GbE'
p3618
aS'We'
p3619
aS'users'
p3620
aS'adoption'
p3621
aS'25 Gbps capable switches'
p3622
aS'new purchases'
p3623
aS'they'
p3624
aS'10 Gbps'
p3625
aS'performance'
p3626
aS'or limited cost increase'
p3627
aS'-switch'
p3628
aS'100 Gbps'
p3629
aS'50Gbps'
p3630
aS'better alternatives'
p3631
aS'40 Gbps'
p3632
aS'they'
p3633
aS'better price/performance'
p3634
aS'we'
p3635
aS'clients'
p3636
aS'40 Gbps technology'
p3637
aS'speeds'
p3638
asg115
(lp3639
S'1/10/25Gbps'
p3640
aS'QSFP+'
p3641
aS'10/25/50/100Gbps'
p3642
aS'QSFP28'
p3643
aS'10/40Gbps'
p3644
aS'10/40Gbps'
p3645
aS'2017'
p3646
aS'2016'
p3647
aS'40Gbps'
p3648
aS'300'
p3649
aS'380'
p3650
aS'10Gbps'
p3651
aS'CAGR'
p3652
aS'2016-2021'
p3653
aS'40Gbps'
p3654
aS'CAGR'
p3655
aS'2016-2021'
p3656
aS'100Gbps'
p3657
aS'2018'
p3658
aS'25Gbps'
p3659
aS'227.8%'
p3660
aS'CAGR'
p3661
aS'2016-2021'
p3662
aS'25'
p3663
aS'next 12 months'
p3664
aS'25/50'
p3665
aS'Gbps 25'
p3666
aS'50'
p3667
aS'Gbps Ethernet'
p3668
aS'100'
p3669
aS'25'
p3670
aS'Gbps'
p3671
aS'25'
p3672
aS'Gbps'
p3673
aS'100'
p3674
aS'50'
p3675
aS'Gbps'
p3676
aS'40'
p3677
aS'2017'
p3678
aS'10'
p3679
aS'Gbps'
p3680
aS'25GbE'
p3681
aS'25'
p3682
aS'Gbps'
p3683
aS'10'
p3684
aS'2.5X'
p3685
aS'100'
p3686
aS'Gbps'
p3687
aS'50Gbps'
p3688
aS'40'
p3689
aS'40'
p3690
aS'Gbps'
p3691
asg128
(lp3692
S'Communications'
p3693
aS'Leading'
p3694
aS'vendors'
p3695
aS'introduced'
p3696
aS'switches'
p3697
aS'based'
p3698
aS'merchant'
p3699
aS'silicon'
p3700
aS'custom'
p3701
aS'ASICs'
p3702
aS'capable'
p3703
aS'supporting'
p3704
aS'1/10/25Gbps'
p3705
aS'QSFP+'
p3706
aS'ports'
p3707
aS'10/25/50/100Gbps'
p3708
aS'QSFP28'
p3709
aS'ports'
p3710
aS'However'
p3711
aS'10/40Gbps'
p3712
aS'products'
p3713
aS'portfolios'
p3714
aS'complete'
p3715
aS'feature'
p3716
aS'form'
p3717
aS'factor'
p3718
aS'parity'
p3719
aS'create'
p3720
aS'constraints'
p3721
aS'product'
p3722
aS'models'
p3723
aS'depending'
p3724
aS'selected'
p3725
aS'network'
p3726
aS'design'
p3727
aS'For'
p3728
aS'inventory'
p3729
aS'reasons'
p3730
aS'vendors'
p3731
aS'lead'
p3732
aS'10/40Gbps'
p3733
aS'2017'
p3734
aS'From'
p3735
aS'pricing'
p3736
aS'perspective'
p3737
aS'latest'
p3738
aS'generation'
p3739
aS'switches'
p3740
aS'offered'
p3741
aS'similar'
p3742
aS'price'
p3743
aS'points'
p3744
aS'2016'
p3745
aS'ASP'
p3746
aS'40Gbps'
p3747
aS'port'
p3748
aS'$'
aS'300'
p3749
aS'100GbE'
p3750
aS'port'
p3751
aS'$'
aS'380'
p3752
aS'provide'
p3753
aS'higher'
p3754
aS'performance'
p3755
aS'better'
p3756
aS'upgrade'
p3757
aS'path'
p3758
aS'represent'
p3759
aS'preferable'
p3760
aS'choice'
p3761
aS'enterprise'
p3762
aS'We'
p3763
aS'expect'
p3764
aS'slow'
p3765
aS'decline'
p3766
aS'10Gbps'
p3767
aS'-7.3'
p3768
aS'CAGR'
p3769
aS'2016'
p3770
aS'2021'
p3771
aS'faster'
p3772
aS'decline'
p3773
aS'40Gbps'
p3774
aS'-27.3'
p3775
aS'CAGR'
p3776
aS'2016'
p3777
aS'2021'
p3778
aS'surpassed'
p3779
aS'100Gbps'
p3780
aS'2018'
p3781
aS'25Gbps'
p3782
aS'accelerate'
p3783
aS'227.8'
p3784
aS'CAGR'
p3785
aS'2016'
p3786
aS'2021'
p3787
aS'standardization'
p3788
aS'server'
p3789
aS'OEMs'
p3790
aS'start'
p3791
aS'shipping'
p3792
aS'servers'
p3793
aS'standard'
p3794
aS'25'
p3795
aS'G'
aS'port'
p3796
aS'expect'
p3797
aS'start'
p3798
aS'12'
p3799
aS'months'
p3800
aS'Availability'
p3801
aS'suitable'
p3802
aS'optical'
p3803
aS'transceivers'
p3804
aS'critical'
p3805
aS'factor'
p3806
aS'widespread'
p3807
aS'market'
p3808
aS'adoption'
p3809
aS'25/50'
p3810
aS'Gbps'
p3811
aS'25'
p3812
aS'50'
p3813
aS'Gbps'
p3814
aS'Ethernet'
p3815
aS'technologies'
p3816
aS'complement'
p3817
aS'introduction'
p3818
aS'100'
p3819
aS'Gbps'
p3820
aS'network'
p3821
aS'core'
p3822
aS'improving'
p3823
aS'performance'
p3824
aS'enabling'
p3825
aS'optimization'
p3826
aS'number'
p3827
aS'tiers'
p3828
aS'25'
p3829
aS'Gbps'
p3830
aS'natural'
p3831
aS'upgrade'
p3832
aS'path'
p3833
aS'server'
p3834
aS'switch'
p3835
aS'connectivity'
p3836
aS'thanks'
p3837
aS'availability'
p3838
aS'servers'
p3839
aS'native'
p3840
aS'25'
p3841
aS'Gbps'
p3842
aS'connectivity'
p3843
aS'multiple'
p3844
aS'cores'
p3845
aS'fill'
p3846
aS'pipe'
p3847
aS'100'
p3848
aS'50'
p3849
aS'Gbps'
p3850
aS'replace'
p3851
aS'40'
p3852
aS'Gbps'
p3853
aS'Vendors'
p3854
aS'support'
p3855
aS'higher'
p3856
aS'speeds'
p3857
aS'selected'
p3858
aS'new'
p3859
aS'models'
p3860
aS'gradually'
p3861
aS'new'
p3862
aS'products'
p3863
aS'lower'
p3864
aS'manufacturing'
p3865
aS'costs'
p3866
aS'providing'
p3867
aS'time'
p3868
aS'feature'
p3869
aS'parity'
p3870
aS'equivalent'
p3871
aS'price'
p3872
aS'points'
p3873
aS'In'
p3874
aS'2017'
p3875
aS'10'
p3876
aS'Gbps'
p3877
aS'remain'
p3878
aS'common'
p3879
aS'server'
p3880
aS'connectivity'
p3881
aS'speed'
p3882
aS'25GbE'
p3883
aS'grow'
p3884
aS'faster'
p3885
aS'We'
p3886
aS'recommend'
p3887
aS'users'
p3888
aS'evaluate'
p3889
aS'adoption'
p3890
aS'25'
p3891
aS'Gbps'
p3892
aS'capable'
p3893
aS'switches'
p3894
aS'new'
p3895
aS'purchases'
p3896
aS'backward'
p3897
aS'compatible'
p3898
aS'10'
p3899
aS'Gbps'
p3900
aS'support'
p3901
aS'2.5X'
p3902
aS'performance'
p3903
aS'limited'
p3904
aS'cost'
p3905
aS'increase'
p3906
aS'For'
p3907
aS'switch'
p3908
aS'switch'
p3909
aS'uplinks'
p3910
aS'100'
p3911
aS'Gbps'
p3912
aS'50Gbps'
p3913
aS'standardized'
p3914
aS'better'
p3915
aS'alternatives'
p3916
aS'40'
p3917
aS'Gbps'
p3918
aS'offer'
p3919
aS'better'
p3920
aS'price'
p3921
aS'performance'
p3922
aS'future'
p3923
aS'proof'
p3924
aS'recommend'
p3925
aS'clients'
p3926
aS'avoid'
p3927
aS'40'
p3928
aS'Gbps'
p3929
aS'technology'
p3930
aS'adopt'
p3931
aS'speeds'
p3932
aS'directly'
p3933
assg364
(lp3934
S'25/50G Ethernet'
p3935
asg367
S'Big Switch Networks'
p3936
sb(dp3937
s(ientity
company
p3938
(dp3939
g14
g2114
sg364
(lp3940
g3046
asg367
S'Siemens'
p3941
sb(dp3942
s(ientity
company
p3943
(dp3944
g14
g3056
sg364
(lp3945
g3058
asg367
S'Embody Orthopaedic'
p3946
sb(dp3947
s(ientity
company
p3948
(dp3949
g14
g2114
sg364
(lp3950
g3046
asg367
S'Stratasys'
p3951
sb(dp3952
s(ientity
company
p3953
(dp3954
g14
g3056
sg364
(lp3955
g3058
asg367
S'Lithoz'
p3956
sb(dp3957
s(ientity
company
p3958
(dp3959
g14
g2114
sg364
(lp3960
g3046
asg367
S'Trimble'
p3961
sb(dp3962
s(ientity
company
p3963
(dp3964
g14
g372
sg364
(lp3965
g1450
asg367
S'The University of Iowa'
p3966
sb(dp3967
s(ientity
company
p3968
(dp3969
g14
g2114
sg364
(lp3970
g3046
asg367
S'i.materialise'
p3971
sb(dp3972
s(ientity
company
p3973
(dp3974
g14
g3056
sg364
(lp3975
g3058
asg367
S'Siemens Medical Solutions'
p3976
sb(dp3977
s(ientity
company
p3978
(dp3979
g14
g15
sg364
(lp3980
g366
asg367
S'Nano Dimension'
p3981
sb(dp3982
s(ientity
company
p3983
(dp3984
g14
(dp3985
g16
g544
sg115
g685
sg128
g1146
ssg364
(lp3986
S'3D Bioprinting for Life Science R&D'
p3987
asg367
S'Next21 K.K.'
p3988
sb(dp3989
s(ientity
company
p3990
(dp3991
g14
g2114
sg364
(lp3992
g3046
asg367
S'3D Systems'
p3993
sb(dp3994
s(ientity
company
p3995
(dp3996
g14
g3985
sg364
(lp3997
g3987
asg367
S'Bio3D Technologies'
p3998
sb(dp3999
s(ientity
company
p4000
(dp4001
g14
g3068
sg364
(lp4002
g3537
asg367
S'3D Robotics'
p4003
sb(dp4004
s(ientity
company
p4005
(dp4006
g14
g3056
sg364
(lp4007
g3058
asg367
S'GE Healthcare'
p4008
sb(dp4009
s(ientity
company
p4010
(dp4011
g14
g3985
sg364
(lp4012
g3987
asg367
S'Advanced Solutions Life Sciences'
p4013
sb(dp4014
s(ientity
company
p4015
(dp4016
g14
g372
sg364
(lp4017
g1450
asg367
S'TeVido BioDevices'
p4018
sb(dp4019
s(ientity
company
p4020
(dp4021
g14
(dp4022
g16
(lp4023
S'so many practical uses'
p4024
aS'engineering feat'
p4025
aS'market'
p4026
aS'very challenging effort'
p4027
aS'3D printed human organs'
p4028
aS'we'
p4029
aS'technologies'
p4030
aS'Technologies'
p4031
aS'Plateau'
p4032
aS'Productivity'
p4033
aS'mainstream medical use'
p4034
aS'technology'
p4035
aS'at least three discrete human tissue use cases'
p4036
aS'approach'
p4037
aS'various scientific and engineering challenges'
p4038
aS'production'
p4039
aS'human-scale tissues'
p4040
aS'various personalized fabrications'
p4041
aS'precise shapes'
p4042
aS'sizes'
p4043
aS'individual patient'
p4044
aS'nutrient diffusion'
p4045
aS'cell survival'
p4046
aS'examples'
p4047
aS'clinical research trials'
p4048
aS'human patients'
p4049
aS'skin bone vascular grafts'
p4050
aS'heart and muscle tissue'
p4051
aS'Important progress'
p4052
aS'R&D viable vendor formation'
p4053
aS'marketing'
p4054
aS'us'
p4055
aS'midpoint'
p4056
aS'peak'
p4057
aS'trough'
p4058
aS'example'
p4059
aS'U.S.'
p4060
aS'Wake Forest Institute'
p4061
aS'Regenerative Medicine'
p4062
aS'funding'
p4063
aS'U.S. Department'
p4064
aS'Defense'
p4065
aS'May'
p4066
aS'it'
p4067
aS'tissues'
p4068
aS'organs'
p4069
aS'healing cell therapies'
p4070
aS'more than 30 different areas'
p4071
aS'body'
p4072
aS'kidney'
p4073
aS'trachea'
p4074
aS'cartilage'
p4075
aS'lung'
p4076
aS'Chinese company Medprin Biotech'
p4077
aS'its first product'
p4078
aS'ReDura Biomimetic-Synthetic-Absorbable Dural Substitute'
p4079
aS'broad adoption'
p4080
aS'more than 30 countries'
p4081
aS'tens of thousands'
p4082
aS'cases'
p4083
aS'dura mater'
p4084
aS'(ridge) membrane'
p4085
aS'brain and nerve cells'
p4086
aS'patient s autologous cells'
p4087
aS'best repair effect'
p4088
aS'Medprin'
p4089
aS'branch offices'
p4090
aS'U.S.'
p4091
aS'Germany'
p4092
aS'array'
p4093
aS'human tissue repair products'
p4094
aS'personalized skull'
p4095
aS'maxillofacial repair system'
p4096
aS'female pelvic diaphragm repair system'
p4097
aS'urethral sling'
p4098
aS'hernia repair piece artificial skin blood vessels'
p4099
aS'ligaments'
p4100
aS'Barriers'
p4101
aS'regulatory approvals'
p4102
aS'controlled clinical trials'
p4103
aS'many use'
p4104
aS'cases'
p4105
aS'set-up'
p4106
aS'capability centers'
p4107
aS'innovation labs'
p4108
aS'external supplier partnerships'
p4109
aS'questions'
p4110
aS'cost'
p4111
aS'payment'
p4112
aS'customized repairs'
p4113
aS'challenge'
p4114
aS'sterility'
p4115
aS'bad cells'
p4116
aS'e.g. cancer'
p4117
aS'contamination'
p4118
aS'3D'
p4119
aS'ability'
p4120
aS'new and precisely personalized human tissues'
p4121
aS'array'
p4122
aS'therapeutic options'
p4123
aS'wide range'
p4124
aS'patient injuries'
p4125
aS'diseases'
p4126
aS'tissues'
p4127
aS'patient s own cells'
p4128
aS'benefit'
p4129
aS'rejection'
p4130
aS'implanted/transplanted tissue'
p4131
aS'costs'
p4132
aS'lifetime'
p4133
aS'anti-rejection drugs'
p4134
aS'emerging use cases'
p4135
aS'limited or rare scenarios'
p4136
aS'time'
p4137
aS'total impact'
p4138
aS'medicine'
p4139
aS'current and currently bigger market'
p4140
aS'production'
p4141
aS'3D printed tissues'
p4142
aS'life science research'
p4143
aS'drug testing'
p4144
aS'business'
p4145
aS'needed early revenue'
p4146
aS'startups'
p4147
aS'human tissue'
p4148
aS'organ 3D'
p4149
aS'Medical leaders'
p4150
aS'life science and health insurance industries'
p4151
aS'close eye'
p4152
aS'advancements'
p4153
aS'3D'
p4154
aS'appropriate involvement'
p4155
aS'decisions'
p4156
aS'Healthcare delivery organizations clinical service line and physician leaders'
p4157
aS'their institutions'
p4158
aS'relevant advances'
p4159
aS'emerging field'
p4160
aS'relevant regulatory and payment issues'
p4161
aS'CIOs CMIOs'
p4162
aS'VPs'
p4163
aS'supply chain'
p4164
aS'developed countries'
p4165
aS'their physicians'
p4166
aS'3DP tissue suppliers'
p4167
aS'vendors'
p4168
aS'EHRs'
p4169
aS'ERP/supply chain systems'
p4170
aS'three to five years'
p4171
aS'broader use provision'
p4172
aS'3D bioprinted tissues'
p4173
aS'They'
p4174
aS'associated supply chain implications'
p4175
aS'entry item master/charge master tissue tracking documentation'
p4176
aS'decision support capabilities'
p4177
aS'creation'
p4178
aS'unique identifiers compliance'
p4179
aS'as-yet-undefined track'
p4180
aS'-trace'
p4181
aS'chain'
p4182
aS'custody requirements'
p4183
aS'implanted tissues'
p4184
aS'EHR system order'
p4185
aS'entry clinical decision support'
p4186
aS'documentation needs'
p4187
ag373
ag373
ag373
ag544
asg115
(lp4188
S'2016'
p4189
aS'Plateau'
p4190
aS'at least three'
p4191
aS'past year'
p4192
aS'U.S.'
p4193
aS'Wake Forest Institute for Regenerative Medicine'
p4194
aS'U.S. Department of Defense'
p4195
aS'May 2017'
p4196
aS'more than 30'
p4197
aS' Chinese company'
p4198
aS'Medprin Biotech'
p4199
aS'2008'
p4200
aS'first'
p4201
aS'ReDura Biomimetic-Synthetic-Absorbable'
p4202
aS'Dural Substitute'
p4203
aS'more than 30'
p4204
aS'tens of thousands'
p4205
aS'U.S.'
p4206
aS'Germany'
p4207
aS'Medical'
p4208
aS'Healthcare'
p4209
aS'CMIOs'
p4210
aS'3DP'
p4211
aS'three to five years'
p4212
ag662
ag662
ag662
ag685
asg128
(lp4213
S'All'
p4214
aS'Inclusive'
p4215
aS'There'
p4216
aS'practical'
p4217
aS'uses'
p4218
aS'engineering'
p4219
aS'feat'
p4220
aS'market'
p4221
aS'maturing'
p4222
aS'faster'
p4223
aS'challenging'
p4224
aS'effort'
p4225
aS'3D'
p4226
aS'printed'
p4227
aS'human'
p4228
aS'organs'
p4229
aS'technologies'
p4230
aS'separate'
p4231
aS'2016'
p4232
aS'Technologies'
p4233
aS'Plateau'
p4234
aS'Productivity'
p4235
aS'mainstream'
p4236
aS'medical'
p4237
aS'use'
p4238
aS'technology'
p4239
aS'discrete'
p4240
aS'human'
p4241
aS'tissue'
p4242
aS'use'
p4243
aS'cases'
p4244
aS'This'
p4245
aS'approach'
p4246
aS'reveals'
p4247
aS'scientific'
p4248
aS'engineering'
p4249
aS'challenges'
p4250
aS'production'
p4251
aS'conquered'
p4252
aS'printing'
p4253
aS'human'
p4254
aS'scale'
p4255
aS'tissues'
p4256
aS'personalized'
p4257
aS'fabrications'
p4258
aS'precise'
p4259
aS'shapes'
p4260
aS'sizes'
p4261
aS'required'
p4262
aS'individual'
p4263
aS'patient'
p4264
aS'plus'
p4265
aS'nutrient'
p4266
aS'diffusion'
p4267
aS'cell'
p4268
aS'survival'
p4269
aS'Among'
p4270
aS'examples'
p4271
aS'achieved'
p4272
aS'clinical'
p4273
aS'research'
p4274
aS'trials'
p4275
aS'human'
p4276
aS'patients'
p4277
aS'multilayered'
p4278
aS'skin'
p4279
aS'bone'
p4280
aS'vascular'
p4281
aS'grafts'
p4282
aS'heart'
p4283
aS'muscle'
p4284
aS'tissue'
p4285
aS'Important'
p4286
aS'progress'
p4287
aS'past'
p4288
aS'year'
p4289
aS'R&D'
p4290
aS'viable'
p4291
aS'vendor'
p4292
aS'formation'
p4293
aS'marketing'
p4294
aS'This'
p4295
aS'causes'
p4296
aS'ahead'
p4297
aS'fairly'
p4298
aS'aggressively'
p4299
aS'midpoint'
p4300
aS'peak'
p4301
aS'trough'
p4302
aS'For'
p4303
aS'example'
p4304
aS'In'
p4305
aS'U.S.'
p4306
aS'Wake'
p4307
aS'Forest'
p4308
aS'Institute'
p4309
aS'Regenerative'
p4310
aS'Medicine'
p4311
aS'funding'
p4312
aS'U.S.'
p4313
aS'Department'
p4314
aS'Defense'
p4315
aS'reported'
p4316
aS'May'
p4317
aS'2017'
p4318
aS'working'
p4319
aS'grow'
p4320
aS'tissues'
p4321
aS'organs'
p4322
aS'develop'
p4323
aS'healing'
p4324
aS'cell'
p4325
aS'therapies'
p4326
aS'30'
p4327
aS'different'
p4328
aS'areas'
p4329
aS'body'
p4330
aS'kidney'
p4331
aS'trachea'
p4332
aS'cartilage'
p4333
aS'lung'
p4334
aS'Chinese'
p4335
aS'company'
p4336
aS'Medprin'
p4337
aS'Biotech'
p4338
aS'founded'
p4339
aS'2008'
p4340
aS'says'
p4341
aS'product'
p4342
aS'ReDura'
p4343
aS'Biomimetic'
p4344
aS'Synthetic'
p4345
aS'Absorbable'
p4346
aS'Dural'
p4347
aS'Substitute'
p4348
aS'reaching'
p4349
aS'broad'
p4350
aS'adoption'
p4351
aS'30'
p4352
aS'countries'
p4353
aS'tens'
p4354
aS'thousands'
p4355
aS'cases'
p4356
aS'considered'
p4357
aS'dura'
p4358
aS'mater'
p4359
aS'ridge'
p4360
aS'membrane'
p4361
aS'surrounding'
p4362
aS'brain'
p4363
aS'nerve'
p4364
aS'cells'
p4365
aS'closest'
p4366
aS'patient'
p4367
aS's'
aS'autologous'
p4368
aS'cells'
p4369
aS'best'
p4370
aS'repair'
p4371
aS'effect'
p4372
aS'Medprin'
p4373
aS'set'
p4374
aS'branch'
p4375
aS'offices'
p4376
aS'U.S.'
p4377
aS'Germany'
p4378
aS'references'
p4379
aS'array'
p4380
aS'human'
p4381
aS'tissue'
p4382
aS'repair'
p4383
aS'products'
p4384
aS'personalized'
p4385
aS'skull'
p4386
aS'maxillofacial'
p4387
aS'repair'
p4388
aS'system'
p4389
aS'female'
p4390
aS'pelvic'
p4391
aS'diaphragm'
p4392
aS'repair'
p4393
aS'system'
p4394
aS'tensionless'
p4395
aS'urethral'
p4396
aS'sling'
p4397
aS'hernia'
p4398
aS'repair'
p4399
aS'piece'
p4400
aS'artificial'
p4401
aS'skin'
p4402
aS'blood'
p4403
aS'vessels'
p4404
aS'ligaments'
p4405
aS'Barriers'
p4406
aS'progress'
p4407
aS'include'
p4408
aS'regulatory'
p4409
aS'approvals'
p4410
aS'following'
p4411
aS'controlled'
p4412
aS'clinical'
p4413
aS'trials'
p4414
aS'use'
p4415
aS'cases'
p4416
aS'set'
p4417
aS'capability'
p4418
aS'centers'
p4419
aS'innovation'
p4420
aS'labs'
p4421
aS'external'
p4422
aS'supplier'
p4423
aS'partnerships'
p4424
aS'questions'
p4425
aS'cost'
p4426
aS'payment'
p4427
aS'customized'
p4428
aS'repairs'
p4429
aS'Another'
p4430
aS'challenge'
p4431
aS'maintain'
p4432
aS'sterility'
p4433
aS'prevent'
p4434
aS'bad'
p4435
aS'cells'
p4436
aS'e.g.'
p4437
aS'cancer'
p4438
aS'contamination'
p4439
aS'3D'
p4440
aS'printed'
p4441
aS'The'
p4442
aS'ability'
p4443
aS'build'
p4444
aS'new'
p4445
aS'precisely'
p4446
aS'personalized'
p4447
aS'human'
p4448
aS'tissues'
p4449
aS'greatly'
p4450
aS'expands'
p4451
aS'array'
p4452
aS'therapeutic'
p4453
aS'options'
p4454
aS'wide'
p4455
aS'range'
p4456
aS'patient'
p4457
aS'injuries'
p4458
aS'diseases'
p4459
aS'3D'
p4460
aS'bioprinted'
p4461
aS'tissues'
p4462
aS'patient'
p4463
aS's'
aS'cells'
p4464
aS'hoped'
p4465
aS'benefit'
p4466
aS'avoiding'
p4467
aS'rejection'
p4468
aS'implanted'
p4469
aS'transplanted'
p4470
aS'tissue'
p4471
aS'costs'
p4472
aS'lifetime'
p4473
aS'anti'
p4474
aS'rejection'
p4475
aS'drugs'
p4476
aS'Many'
p4477
aS'emerging'
p4478
aS'use'
p4479
aS'cases'
p4480
aS'limited'
p4481
aS'rare'
p4482
aS'scenarios'
p4483
aS'However'
p4484
aS'aggregate'
p4485
aS'time'
p4486
aS'total'
p4487
aS'impact'
p4488
aS'medicine'
p4489
aS'high'
p4490
aS'There'
p4491
aS'current'
p4492
aS'currently'
p4493
aS'bigger'
p4494
aS'market'
p4495
aS'production'
p4496
aS'3D'
p4497
aS'printed'
p4498
aS'tissues'
p4499
aS'life'
p4500
aS'science'
p4501
aS'research'
p4502
aS'drug'
p4503
aS'testing'
p4504
aS'This'
p4505
aS'business'
p4506
aS'providing'
p4507
aS'needed'
p4508
aS'early'
p4509
aS'revenue'
p4510
aS'startups'
p4511
aS'targeting'
p4512
aS'human'
p4513
aS'tissue'
p4514
aS'organ'
p4515
aS'3D'
p4516
aS'bioprinting'
p4517
aS'Medical'
p4518
aS'leaders'
p4519
aS'life'
p4520
aS'science'
p4521
aS'health'
p4522
aS'insurance'
p4523
aS'industries'
p4524
aS'want'
p4525
aS'close'
p4526
aS'eye'
p4527
aS'advancements'
p4528
aS'3D'
p4529
aS'bioprinting'
p4530
aS'appropriate'
p4531
aS'involvement'
p4532
aS'decisions'
p4533
aS'Healthcare'
p4534
aS'delivery'
p4535
aS'organizations'
p4536
aS'clinical'
p4537
aS'service'
p4538
aS'line'
p4539
aS'physician'
p4540
aS'leaders'
p4541
aS'prepare'
p4542
aS'position'
p4543
aS'institutions'
p4544
aS'adding'
p4545
aS'relevant'
p4546
aS'advances'
p4547
aS'emerging'
p4548
aS'field'
p4549
aS'working'
p4550
aS'relevant'
p4551
aS'regulatory'
p4552
aS'payment'
p4553
aS'issues'
p4554
aS'CIOs'
p4555
aS'CMIOs'
p4556
aS'VPs'
p4557
aS'supply'
p4558
aS'chain'
p4559
aS'developed'
p4560
aS'countries'
p4561
aS'begin'
p4562
aS'working'
p4563
aS'physicians'
p4564
aS'3DP'
p4565
aS'tissue'
p4566
aS'suppliers'
p4567
aS'vendors'
p4568
aS'EHRs'
p4569
aS'ERP'
p4570
aS'supply'
p4571
aS'chain'
p4572
aS'systems'
p4573
aS'years'
p4574
aS'manage'
p4575
aS'broader'
p4576
aS'use'
p4577
aS'provision'
p4578
aS'3D'
p4579
aS'bioprinted'
p4580
aS'tissues'
p4581
aS'They'
p4582
aS'prepare'
p4583
aS'work'
p4584
aS'associated'
p4585
aS'supply'
p4586
aS'chain'
p4587
aS'implications'
p4588
aS'IT'
p4589
aS'order'
p4590
aS'entry'
p4591
aS'item'
p4592
aS'master'
p4593
aS'charge'
p4594
aS'master'
p4595
aS'tissue'
p4596
aS'tracking'
p4597
aS'documentation'
p4598
aS'decision'
p4599
aS'support'
p4600
aS'capabilities'
p4601
aS'This'
p4602
aS'include'
p4603
aS'creation'
p4604
aS'unique'
p4605
aS'identifiers'
p4606
aS'compliance'
p4607
aS'undefined'
p4608
aS'track'
p4609
aS'trace'
p4610
aS'chain'
p4611
aS'custody'
p4612
aS'requirements'
p4613
aS'implanted'
p4614
aS'tissues'
p4615
aS'EHR'
p4616
aS'system'
p4617
aS'order'
p4618
aS'entry'
p4619
aS'clinical'
p4620
aS'decision'
p4621
aS'support'
p4622
aS'documentation'
p4623
aS'needs'
p4624
aS'need'
p4625
aS'determined'
p4626
ag700
ag700
ag700
ag1146
assg364
(lp4627
S'3D Bioprinted Human Tissue'
p4628
asg367
S'Cyfuse Biomedical K.K.'
p4629
sb(dp4630
s(ientity
company
p4631
(dp4632
g14
g1460
sg364
(lp4633
g2109
asg367
S'LG Electronics'
p4634
sb(dp4635
s(ientity
company
p4636
(dp4637
g14
g3985
sg364
(lp4638
g3987
asg367
S'nScrypt'
p4639
sb(dp4640
s(ientity
company
p4641
(dp4642
g14
g3985
sg364
(lp4643
g3987
asg367
S'OxSyBio'
p4644
sb(dp4645
s(ientity
company
p4646
(dp4647
g14
g4022
sg364
(lp4648
g4628
asg367
S'Nanoscribe'
p4649
sb(dp4650
s(ientity
company
p4651
(dp4652
g14
g372
sg364
(lp4653
g1450
asg367
S'Creative Machines Lab'
p4654
sb(dp4655
s(ientity
company
p4656
(dp4657
g14
g1460
sg364
(lp4658
g2109
asg367
S'Apple'
p4659
sb(dp4660
s(ientity
company
p4661
(dp4662
g14
g4022
sg364
(lp4663
g4628
asg367
S'Organovo'
p4664
sb(dp4665
s(ientity
company
p4666
(dp4667
g14
g1460
sg364
(lp4668
g2109
asg367
S'Samsung Electronics'
p4669
sb(dp4670
s(ientity
company
p4671
(dp4672
g14
(dp4673
g16
(lp4674
S'Inclusive The 2017 Gartner CEO and Senior Business Executive Survey'
p4675
aS'continuing drive'
p4676
aS'digital business'
p4677
aS'42%'
p4678
aS'core'
p4679
aS'their company digital business posture'
p4680
aS'result'
p4681
aS'CIOs'
p4682
aS'initiatives'
p4683
aS'data'
p4684
aS'asset'
p4685
aS'purpose'
p4686
aS'customer value'
p4687
aS'revenue'
p4688
aS'2017 CEO Survey'
p4689
aS'CIOs'
p4690
aS'Digital Business G00326068'
p4691
aS'Gartner client inquiries'
p4692
aS'growing number'
p4693
aS'companies'
p4694
aS'focus'
p4695
aS'their master data management (MDM) program'
p4696
aS'other types'
p4697
aS'forms'
p4698
aS'information'
p4699
aS'360-degree views'
p4700
aS'MDM programs'
p4701
aS'enterprise information management'
p4702
aS'(EIM) scope'
p4703
aS'2020 75%'
p4704
aS'organizations'
p4705
aS'EIM'
p4706
aS'link'
p4707
aS'their data and analytics investments'
p4708
aS'substantially improved business or mission outcomes Organizations'
p4709
aS'MDM'
p4710
aS'EIM'
p4711
aS'360-degree view risk'
p4712
aS'erroneous data'
p4713
aS'business'
p4714
aS'poor insight'
p4715
aS'decisions'
p4716
aS'master data'
p4717
aS'Data and analytics leaders'
p4718
aS'additional data sources'
p4719
aS'master data'
p4720
aS'support'
p4721
aS'specific demand-centric business requirements'
p4722
aS'potential'
p4723
aS'business value'
p4724
aS'such a 360-degree view'
p4725
aS'loop'
p4726
aS'insight'
p4727
aS'decisions'
p4728
aS'business-critical objects'
p4729
aS'many business or mission contexts'
p4730
aS'360-degree view'
p4731
aS'foundation'
p4732
aS'trusted master data'
p4733
aS'Organizations'
p4734
aS'MDM program'
p4735
aS'they'
p4736
aS'business justification'
p4737
aS'framework'
p4738
aS'Gartner s Seven Building Blocks'
p4739
aS'MDM'
p4740
aS'Seven Building Blocks'
p4741
aS'MDM'
p4742
aS': A Framework'
p4743
aS'Success G00311161'
p4744
aS'MDM'
p4745
aS'whole story'
p4746
aS'realization'
p4747
aS'360-degree view'
p4748
aS'combination'
p4749
aS'master data and event-driven nonmaster data'
p4750
aS'targeted manner'
p4751
aS'specific business requirements'
p4752
aS'Organizations'
p4753
aS'single-domain MDM programs'
p4754
aS'master data domains'
p4755
aS'360-degree views'
p4756
aS'business case'
p4757
aS'roadmap'
p4758
aS'additional domains'
p4759
aS'enterprise metadata management'
p4760
aS'EMM'
p4761
aS'canonical data formats'
p4762
aS'master data domain'
p4763
aS'nonmaster data'
p4764
aS'data hub'
p4765
aS'360-degree view'
p4766
asg115
(lp4767
S'2017'
p4768
aS'Gartner'
p4769
aS'Business Executive Survey'
p4770
aS'42%'
p4771
aS'first'
p4772
aS'Digital Business G00326068'
p4773
aS'2016'
p4774
aS'2017'
p4775
aS'MDM'
p4776
aS'360-degree'
p4777
aS'MDM'
p4778
aS'EIM'
p4779
aS'2020'
p4780
aS'75%'
p4781
aS'EIM'
p4782
aS'MDM'
p4783
aS'EIM'
p4784
aS'360-degree'
p4785
aS'360-degree'
p4786
aS'360-degree'
p4787
aS'MDM'
p4788
aS'Gartner s Seven Building Blocks of MDM'
p4789
aS'Seven Building Blocks'
p4790
aS'MDM'
p4791
aS'360-degree'
p4792
aS'MDM'
p4793
aS'360-degree'
p4794
aS'Lastly'
p4795
aS'360-degree'
p4796
asg128
(lp4797
S'All'
p4798
aS'Inclusive'
p4799
aS'The'
p4800
aS'2017'
p4801
aS'Gartner'
p4802
aS'CEO'
p4803
aS'Senior'
p4804
aS'Business'
p4805
aS'Executive'
p4806
aS'Survey'
p4807
aS'highlighted'
p4808
aS'continuing'
p4809
aS'drive'
p4810
aS'digital'
p4811
aS'business'
p4812
aS'42'
p4813
aS'saying'
p4814
aS'digital'
p4815
aS'digital'
p4816
aS'core'
p4817
aS'company'
p4818
aS'digital'
p4819
aS'business'
p4820
aS'posture'
p4821
aS'As'
p4822
aS'result'
p4823
aS'CIOs'
p4824
aS'seeking'
p4825
aS'initiatives'
p4826
aS'exploit'
p4827
aS'data'
p4828
aS'asset'
p4829
aS'purpose'
p4830
aS'generating'
p4831
aS'customer'
p4832
aS'value'
p4833
aS'winning'
p4834
aS'revenue'
p4835
aS'2017'
p4836
aS'CEO'
p4837
aS'Survey'
p4838
aS'CIOs'
p4839
aS'Must'
p4840
aS'Scale'
p4841
aS'Up'
p4842
aS'Digital'
p4843
aS'Business'
p4844
aS'G00326068'
p4845
aS'Gartner'
p4846
aS'client'
p4847
aS'inquiries'
p4848
aS'2016'
p4849
aS'2017'
p4850
aS'growing'
p4851
aS'number'
p4852
aS'companies'
p4853
aS'looking'
p4854
aS'expand'
p4855
aS'focus'
p4856
aS'master'
p4857
aS'data'
p4858
aS'management'
p4859
aS'MDM'
p4860
aS'program'
p4861
aS'types'
p4862
aS'forms'
p4863
aS'information'
p4864
aS'realize'
p4865
aS'360-degree'
p4866
aS'views'
p4867
aS'This'
p4868
aS'effectively'
p4869
aS'expanding'
p4870
aS'MDM'
p4871
aS'programs'
p4872
aS'enterprise'
p4873
aS'information'
p4874
aS'management'
p4875
aS'EIM'
p4876
aS'scope'
p4877
aS'By'
p4878
aS'2020'
p4879
aS'75'
p4880
aS'organizations'
p4881
aS'use'
p4882
aS'EIM'
p4883
aS'align'
p4884
aS'link'
p4885
aS'leverage'
p4886
aS'data'
p4887
aS'analytics'
p4888
aS'investments'
p4889
aS'report'
p4890
aS'substantially'
p4891
aS'improved'
p4892
aS'business'
p4893
aS'mission'
p4894
aS'outcomes'
p4895
aS'Organizations'
p4896
aS'neglect'
p4897
aS'MDM'
p4898
aS'EIM'
p4899
aS'creating'
p4900
aS'360-degree'
p4901
aS'view'
p4902
aS'risk'
p4903
aS'delivering'
p4904
aS'erroneous'
p4905
aS'data'
p4906
aS'business'
p4907
aS'poor'
p4908
aS'insight'
p4909
aS'decisions'
p4910
aS'result'
p4911
aS'However'
p4912
aS'master'
p4913
aS'data'
p4914
aS'Data'
p4915
aS'analytics'
p4916
aS'leaders'
p4917
aS'successfully'
p4918
aS'identify'
p4919
aS'connect'
p4920
aS'additional'
p4921
aS'data'
p4922
aS'sources'
p4923
aS'master'
p4924
aS'data'
p4925
aS'support'
p4926
aS'specific'
p4927
aS'demand'
p4928
aS'centric'
p4929
aS'business'
p4930
aS'requirements'
p4931
aS'unlock'
p4932
aS'potential'
p4933
aS'business'
p4934
aS'value'
p4935
aS'As'
p4936
aS'360-degree'
p4937
aS'view'
p4938
aS'close'
p4939
aS'loop'
p4940
aS'insight'
p4941
aS'decisions'
p4942
aS'based'
p4943
aS'business'
p4944
aS'critical'
p4945
aS'objects'
p4946
aS'holistically'
p4947
aS'business'
p4948
aS'mission'
p4949
aS'contexts'
p4950
aS'A'
aS'360-degree'
p4951
aS'view'
p4952
aS'achieved'
p4953
aS'foundation'
p4954
aS'trusted'
p4955
aS'master'
p4956
aS'data'
p4957
aS'Organizations'
p4958
aS'far'
p4959
aS'deferred'
p4960
aS'starting'
p4961
aS'MDM'
p4962
aS'program'
p4963
aS'find'
p4964
aS'business'
p4965
aS'justification'
p4966
aS'needed'
p4967
aS'forward'
p4968
aS'framework'
p4969
aS'Gartner'
p4970
aS's'
aS'Seven'
p4971
aS'Building'
p4972
aS'Blocks'
p4973
aS'MDM'
p4974
aS'The'
p4975
aS'Seven'
p4976
aS'Building'
p4977
aS'Blocks'
p4978
aS'MDM'
p4979
aS'A'
aS'Framework'
p4980
aS'Success'
p4981
aS'G00311161'
p4982
aS'However'
p4983
aS'MDM'
p4984
aS'story'
p4985
aS'realization'
p4986
aS'360-degree'
p4987
aS'view'
p4988
aS'require'
p4989
aS'combination'
p4990
aS'master'
p4991
aS'data'
p4992
aS'event'
p4993
aS'driven'
p4994
aS'nonmaster'
p4995
aS'data'
p4996
aS'targeted'
p4997
aS'manner'
p4998
aS'fulfill'
p4999
aS'specific'
p5000
aS'business'
p5001
aS'requirements'
p5002
aS'Organizations'
p5003
aS'adopted'
p5004
aS'single'
p5005
aS'domain'
p5006
aS'MDM'
p5007
aS'programs'
p5008
aS'start'
p5009
aS'assessing'
p5010
aS'master'
p5011
aS'data'
p5012
aS'domains'
p5013
aS'required'
p5014
aS'support'
p5015
aS'360-degree'
p5016
aS'views'
p5017
aS'Create'
p5018
aS'business'
p5019
aS'case'
p5020
aS'develop'
p5021
aS'roadmap'
p5022
aS'implement'
p5023
aS'additional'
p5024
aS'domains'
p5025
aS'Lastly'
p5026
aS'adopt'
p5027
aS'enterprise'
p5028
aS'metadata'
p5029
aS'management'
p5030
aS'EMM'
p5031
aS'approach'
p5032
aS'create'
p5033
aS'canonical'
p5034
aS'data'
p5035
aS'formats'
p5036
aS'incorporating'
p5037
aS'master'
p5038
aS'data'
p5039
aS'domain'
p5040
aS'equally'
p5041
aS'trusted'
p5042
aS'accessible'
p5043
aS'nonmaster'
p5044
aS'data'
p5045
aS'data'
p5046
aS'hub'
p5047
aS'generate'
p5048
aS'360-degree'
p5049
aS'view'
p5050
assg364
(lp5051
S'360-Degree View'
p5052
asg367
S'Adobe'
p5053
sb(dp5054
s(ientity
company
p5055
(dp5056
g14
g1460
sg364
(lp5057
g2109
asg367
S'Microsoft'
p5058
sb(dp5059
s(ientity
company
p5060
(dp5061
g14
g4022
sg364
(lp5062
g4628
asg367
S'University of Zurich'
p5063
sb(dp5064
s(ientity
company
p5065
(dp5066
g14
g3056
sg364
(lp5067
g3058
asg367
S'ConforMIS'
p5068
sb(dp5069
s(ientity
company
p5070
(dp5071
g14
g372
sg364
(lp5072
g1450
asg367
S'3D Bioprinting Solutions'
p5073
sb(dp5074
s(ientity
company
p5075
(dp5076
g14
g15
sg364
(lp5077
g366
asg367
S'Neotech AMT'
p5078
sb(dp5079
s(ientity
company
p5080
(dp5081
g14
g3547
sg364
(lp5082
g3935
asg367
S'Accton'
p5083
sb(dp5084
s(ientity
company
p5085
(dp5086
g14
g2114
sg364
(lp5087
g3046
asg367
S'Autodesk'
p5088
sb(dp5089
s(ientity
company
p5090
(dp5091
g14
g4673
sg364
(lp5092
g5052
asg367
S'MarkLogic'
p5093
sb(dp5094
s(ientity
company
p5095
(dp5096
g14
g4022
sg364
(lp5097
g4628
asg367
S'Wyss Institute'
p5098
sb(dp5099
s(ientity
company
p5100
(dp5101
g14
g4673
sg364
(lp5102
g5052
asg367
S'Pitney Bowes'
p5103
sb(dp5104
s(ientity
company
p5105
(dp5106
g14
g1460
sg364
(lp5107
g2109
asg367
S'Huawei'
p5108
sb(dp5109
s(ientity
company
p5110
(dp5111
g14
g3547
sg364
(lp5112
g3935
asg367
S'Arista Networks'
p5113
sb(dp5114
s(ientity
company
p5115
(dp5116
g14
g4673
sg364
(lp5117
g5052
asg367
S'Reltio'
p5118
sb(dp5119
s(ientity
company
p5120
(dp5121
g14
g3547
sg364
(lp5122
g3935
asg367
S'Cisco'
p5123
sb(dp5124
s(ientity
company
p5125
(dp5126
g14
g1460
sg364
(lp5127
g2109
asg367
S'Sony'
p5128
sb(dp5129
s(ientity
company
p5130
(dp5131
g14
g1460
sg364
(lp5132
g2109
asg367
S'Toshiba'
p5133
sb(dp5134
s(ientity
company
p5135
(dp5136
g14
g3985
sg364
(lp5137
g3987
asg367
S'Rainbow Biosciences'
p5138
sb(dp5139
s(ientity
company
p5140
(dp5141
g14
g15
sg364
(lp5142
g366
asg367
S'Kateeva'
p5143
sb(dp5144
s(ientity
company
p5145
(dp5146
g14
g3547
sg364
(lp5147
g3935
asg367
S'Dell'
p5148
sb(dp5149
s(ientity
company
p5150
(dp5151
g14
g4673
sg364
(lp5152
g5052
asg367
S'Informatica'
p5153
sb(dp5154
s(ientity
company
p5155
(dp5156
g14
g4022
sg364
(lp5157
g4628
asg367
S'Medprin Biotech'
p5158
sb(dp5159
s(ientity
company
p5160
(dp5161
g14
g3068
sg364
(lp5162
g3537
asg367
S'DJI'
p5163
sb(dp5164
s(ientity
company
p5165
(dp5166
g14
g3547
sg364
(lp5167
g3935
asg367
S'Huawei Technologies'
p5168
sb(dp5169
s(ientity
company
p5170
(dp5171
g14
g3068
sg364
(lp5172
g3537
asg367
S'AirMap'
p5173
sb(dp5174
s(ientity
company
p5175
(dp5176
g14
g3056
sg364
(lp5177
g3058
asg367
S'Materialise'
p5178
sb(dp5179
s(ientity
company
p5180
(dp5181
g14
g3547
sg364
(lp5182
g3935
asg367
S'Juniper Networks'
p5183
sb(dp5184
s(ientity
company
p5185
(dp5186
g14
g2114
sg364
(lp5187
g3046
asg367
S'Ansys'
p5188
sb(dp5189
s(ientity
company
p5190
(dp5191
g14
g3985
sg364
(lp5192
g3987
asg367
S'Aspect Biosystems'
p5193
sb(dp5194
s(ientity
company
p5195
(dp5196
g14
g3056
sg364
(lp5197
g3058
asg367
S'Arcam'
p5198
sb(dp5199
s(ientity
company
p5200
(dp5201
g14
g15
sg364
(lp5202
g366
asg367
S'Optomec'
p5203
sb(dp5204
s(ientity
company
p5205
(dp5206
g14
g4673
sg364
(lp5207
g5052
asg367
S'IBM'
p5208
sb(dp5209
s(ientity
company
p5210
(dp5211
g14
g4022
sg364
(lp5212
g4628
asg367
S'Wake Forest Institute for Regenerative Medicine'
p5213
sb(dp5214
s(ientity
company
p5215
(dp5216
g14
g15
sg364
(lp5217
g366
asg367
S'Plastic Logic'
p5218
sb(dp5219
s(ientity
company
p5220
(dp5221
g14
g2114
sg364
(lp5222
g3046
asg367
S'Dassault Systmes'
p5223
sb(dp5224
s(ientity
company
p5225
(dp5226
g14
g15
sg364
(lp5227
g366
asg367
S'Seiko Epson'
p5228
sb(dp5229
ssS'graph'
p5230
(dp5231
sS'root_graph'
p5232
g4
sS'_adj'
p5233
(dp5234
g12
(dp5235
g3978
(dp5236
S'weight'
p5237
I1
ssg1453
(dp5238
g5237
I1
ssg3061
(dp5239
g5237
I1
ssg5140
(dp5240
g5237
I1
ssg5075
(dp5241
g5237
I1
ssg5200
(dp5242
g5237
I1
ssg5215
(dp5243
g5237
I1
ssg5225
(dp5244
g5237
I1
sssg370
(dp5245
g4651
(dp5246
g5237
I1
ssg4636
(dp5247
g5237
I1
ssg4641
(dp5248
g5237
I1
ssg5135
(dp5249
g5237
I1
ssg3983
(dp5250
g5237
I1
ssg5190
(dp5251
g5237
I1
ssg4661
(dp5252
g5237
I1
ssg3540
(dp5253
g5237
I1
ssg5070
(dp5254
g5237
I1
ssg5210
(dp5255
g5237
I1
ssg5095
(dp5256
g5237
I1
ssg4010
(dp5257
g5237
I1
ssg3963
(dp5258
g5237
I1
ssg3995
(dp5259
g5237
I1
ssg4015
(dp5260
g5237
I1
sssg1453
(dp5261
g12
g5238
sg3978
(dp5262
g5237
I1
ssg3061
(dp5263
g5237
I1
ssg5140
(dp5264
g5237
I1
ssg5075
(dp5265
g5237
I1
ssg5200
(dp5266
g5237
I1
ssg5215
(dp5267
g5237
I1
ssg5225
(dp5268
g5237
I1
sssg1458
(dp5269
g5130
(dp5270
g5237
I1
ssg4656
(dp5271
g5237
I1
ssg4631
(dp5272
g5237
I1
ssg5055
(dp5273
g5237
I1
ssg5105
(dp5274
g5237
I1
ssg4666
(dp5275
g5237
I1
ssg5125
(dp5276
g5237
I1
sssg2112
(dp5277
g3968
(dp5278
g5237
I1
ssg5185
(dp5279
g5237
I1
ssg3049
(dp5280
g5237
I1
ssg3990
(dp5281
g5237
I1
ssg3938
(dp5282
g5237
I1
ssg3948
(dp5283
g5237
I1
ssg5085
(dp5284
g5237
I1
ssg3958
(dp5285
g5237
I1
ssg5220
(dp5286
g5237
I1
sssg3049
(dp5287
g3968
(dp5288
g5237
I1
ssg2112
g5280
sg5185
(dp5289
g5237
I1
ssg3990
(dp5290
g5237
I1
ssg3938
(dp5291
g5237
I1
ssg3948
(dp5292
g5237
I1
ssg5085
(dp5293
g5237
I1
ssg3958
(dp5294
g5237
I1
ssg5220
(dp5295
g5237
I1
sssg3054
(dp5296
g5065
(dp5297
g5237
I1
ssg4005
(dp5298
g5237
I1
ssg3953
(dp5299
g5237
I1
ssg3990
(dp5300
g5237
I1
ssg5175
(dp5301
g5237
I1
ssg5195
(dp5302
g5237
I1
ssg3943
(dp5303
g5237
I1
ssg3948
(dp5304
g5237
I1
ssg3973
(dp5305
g5237
I1
sssg3061
(dp5306
g12
g5239
sg3978
(dp5307
g5237
I1
ssg1453
g5263
sg5140
(dp5308
g5237
I1
ssg5075
(dp5309
g5237
I1
ssg5200
(dp5310
g5237
I1
ssg5215
(dp5311
g5237
I1
ssg5225
(dp5312
g5237
I1
sssg3066
(dp5313
g5170
(dp5314
g5237
I1
ssg4000
(dp5315
g5237
I1
ssg5160
(dp5316
g5237
I1
sssg3540
(dp5317
g4651
(dp5318
g5237
I1
ssg4661
(dp5319
g5237
I1
ssg5070
(dp5320
g5237
I1
ssg5210
(dp5321
g5237
I1
ssg370
g5253
sg5095
(dp5322
g5237
I1
ssg3963
(dp5323
g5237
I1
ssg4015
(dp5324
g5237
I1
sssg3545
(dp5325
g5120
(dp5326
g5237
I1
ssg5145
(dp5327
g5237
I1
ssg5165
(dp5328
g5237
I1
ssg5180
(dp5329
g5237
I1
ssg5080
(dp5330
g5237
I1
ssg5110
(dp5331
g5237
I1
sssg3938
(dp5332
g3968
(dp5333
g5237
I1
ssg2112
g5282
sg5185
(dp5334
g5237
I1
ssg3049
g5291
sg3990
(dp5335
g5237
I1
ssg3948
(dp5336
g5237
I1
ssg5085
(dp5337
g5237
I1
ssg3958
(dp5338
g5237
I1
ssg5220
(dp5339
g5237
I1
sssg3943
(dp5340
g5065
(dp5341
g5237
I1
ssg4005
(dp5342
g5237
I1
ssg3948
(dp5343
g5237
I1
ssg3953
(dp5344
g5237
I1
ssg3990
(dp5345
g5237
I1
ssg5175
(dp5346
g5237
I1
ssg5195
(dp5347
g5237
I1
ssg3054
g5303
sg3973
(dp5348
g5237
I1
sssg3948
(dp5349
g3973
(dp5350
g5237
I1
ssg3968
(dp5351
g5237
I1
ssg3054
g5304
sg2112
g5283
sg5185
(dp5352
g5237
I1
ssg5175
(dp5353
g5237
I1
ssg3049
g5292
sg3990
(dp5354
g5237
I1
ssg3938
g5336
sg5195
(dp5355
g5237
I1
ssg3943
g5343
sg4005
(dp5356
g5237
I1
ssg5085
(dp5357
g5237
I1
ssg3953
(dp5358
g5237
I1
ssg3958
(dp5359
g5237
I1
ssg5220
(dp5360
g5237
I1
ssg5065
(dp5361
g5237
I1
sssg3953
(dp5362
g5065
(dp5363
g5237
I1
ssg4005
(dp5364
g5237
I1
ssg3948
g5358
sg3990
(dp5365
g5237
I1
ssg5175
(dp5366
g5237
I1
ssg5195
(dp5367
g5237
I1
ssg3943
g5344
sg3054
g5299
sg3973
(dp5368
g5237
I1
sssg3958
(dp5369
g3968
(dp5370
g5237
I1
ssg2112
g5285
sg5185
(dp5371
g5237
I1
ssg3049
g5294
sg3990
(dp5372
g5237
I1
ssg3938
g5338
sg3948
g5359
sg5085
(dp5373
g5237
I1
ssg5220
(dp5374
g5237
I1
sssg3963
(dp5375
g4651
(dp5376
g5237
I1
ssg4661
(dp5377
g5237
I1
ssg3540
g5323
sg5070
(dp5378
g5237
I1
ssg5210
(dp5379
g5237
I1
ssg370
g5258
sg5095
(dp5380
g5237
I1
ssg4015
(dp5381
g5237
I1
sssg3968
(dp5382
g2112
g5278
sg5185
(dp5383
g5237
I1
ssg3049
g5288
sg3990
(dp5384
g5237
I1
ssg3938
g5333
sg3948
g5351
sg5085
(dp5385
g5237
I1
ssg3958
g5370
sg5220
(dp5386
g5237
I1
sssg3973
(dp5387
g5065
(dp5388
g5237
I1
ssg4005
(dp5389
g5237
I1
ssg3948
g5350
sg3953
g5368
sg3990
(dp5390
g5237
I1
ssg5175
(dp5391
g5237
I1
ssg5195
(dp5392
g5237
I1
ssg3943
g5348
sg3054
g5305
ssg3978
(dp5393
g12
g5236
sg1453
g5262
sg3061
g5307
sg5140
(dp5394
g5237
I1
ssg5075
(dp5395
g5237
I1
ssg5200
(dp5396
g5237
I1
ssg5215
(dp5397
g5237
I1
ssg5225
(dp5398
g5237
I1
sssg3983
(dp5399
g4636
(dp5400
g5237
I1
ssg4641
(dp5401
g5237
I1
ssg5190
(dp5402
g5237
I1
ssg4661
(dp5403
g5237
I1
ssg5135
(dp5404
g5237
I1
ssg370
g5250
sg4010
(dp5405
g5237
I1
ssg3995
(dp5406
g5237
I1
ssg4015
(dp5407
g5237
I1
sssg3990
(dp5408
g3973
g5390
sg4005
(dp5409
g5237
I1
ssg3968
g5384
sg3054
g5300
sg2112
g5281
sg5185
(dp5410
g5237
I1
ssg5175
(dp5411
g5237
I1
ssg3049
g5290
sg3938
g5335
sg5195
(dp5412
g5237
I1
ssg3943
g5345
sg3948
g5354
sg5085
(dp5413
g5237
I1
ssg3953
g5365
sg3958
g5372
sg5220
(dp5414
g5237
I1
ssg5065
(dp5415
g5237
I1
sssg3995
(dp5416
g4636
(dp5417
g5237
I1
ssg4641
(dp5418
g5237
I1
ssg3983
g5406
sg5190
(dp5419
g5237
I1
ssg4661
(dp5420
g5237
I1
ssg5135
(dp5421
g5237
I1
ssg370
g5259
sg4010
(dp5422
g5237
I1
ssg4015
(dp5423
g5237
I1
sssg4000
(dp5424
g3066
g5315
sg5170
(dp5425
g5237
I1
ssg5160
(dp5426
g5237
I1
sssg4005
(dp5427
g5065
(dp5428
g5237
I1
ssg3948
g5356
sg3953
g5364
sg3990
g5409
sg5175
(dp5429
g5237
I1
ssg5195
(dp5430
g5237
I1
ssg3943
g5342
sg3054
g5298
sg3973
g5389
ssg4010
(dp5431
g4636
(dp5432
g5237
I1
ssg4661
(dp5433
g5237
I1
ssg3983
g5405
sg5190
(dp5434
g5237
I1
ssg4641
(dp5435
g5237
I1
ssg5135
(dp5436
g5237
I1
ssg370
g5257
sg3995
g5422
sg4015
(dp5437
g5237
I1
sssg4015
(dp5438
g4651
(dp5439
g5237
I1
ssg4636
(dp5440
g5237
I1
ssg4641
(dp5441
g5237
I1
ssg5135
(dp5442
g5237
I1
ssg3983
g5407
sg5190
(dp5443
g5237
I1
ssg4661
(dp5444
g5237
I1
ssg3540
g5324
sg5070
(dp5445
g5237
I1
ssg5210
(dp5446
g5237
I1
ssg370
g5260
sg5095
(dp5447
g5237
I1
ssg4010
g5437
sg3963
g5381
sg3995
g5423
ssg4020
(dp5448
g4646
(dp5449
g5237
I1
ssg5155
(dp5450
g5237
I1
ssg4661
(dp5451
g5237
I1
ssg5060
(dp5452
g5237
I1
ssg5210
(dp5453
g5237
I1
ssg5095
(dp5454
g5237
I1
sssg4631
(dp5455
g5130
(dp5456
g5237
I1
ssg4656
(dp5457
g5237
I1
ssg1458
g5272
sg5055
(dp5458
g5237
I1
ssg5105
(dp5459
g5237
I1
ssg4666
(dp5460
g5237
I1
ssg5125
(dp5461
g5237
I1
sssg4636
(dp5462
g4661
(dp5463
g5237
I1
ssg3983
g5400
sg5190
(dp5464
g5237
I1
ssg4641
(dp5465
g5237
I1
ssg5135
(dp5466
g5237
I1
ssg370
g5247
sg4010
g5432
sg3995
g5417
sg4015
g5440
ssg4641
(dp5467
g4636
g5465
sg3983
g5401
sg5190
(dp5468
g5237
I1
ssg4661
(dp5469
g5237
I1
ssg5135
(dp5470
g5237
I1
ssg370
g5248
sg4010
g5435
sg3995
g5418
sg4015
g5441
ssg4646
(dp5471
g5155
(dp5472
g5237
I1
ssg4661
(dp5473
g5237
I1
ssg5060
(dp5474
g5237
I1
ssg5210
(dp5475
g5237
I1
ssg5095
(dp5476
g5237
I1
ssg4020
g5449
ssg4651
(dp5477
g4661
(dp5478
g5237
I1
ssg3540
g5318
sg5070
(dp5479
g5237
I1
ssg5210
(dp5480
g5237
I1
ssg370
g5246
sg5095
(dp5481
g5237
I1
ssg3963
g5376
sg4015
g5439
ssg4656
(dp5482
g5130
(dp5483
g5237
I1
ssg1458
g5271
sg4631
g5457
sg5055
(dp5484
g5237
I1
ssg5105
(dp5485
g5237
I1
ssg4666
(dp5486
g5237
I1
ssg5125
(dp5487
g5237
I1
sssg4661
(dp5488
g4651
g5478
sg5190
(dp5489
g5237
I1
ssg5135
(dp5490
g5237
I1
ssg3983
g5403
sg4646
g5473
sg4636
g5463
sg5155
(dp5491
g5237
I1
ssg4641
g5469
sg3540
g5319
sg3995
g5420
sg5060
(dp5492
g5237
I1
ssg5070
(dp5493
g5237
I1
ssg5210
(dp5494
g5237
I1
ssg370
g5252
sg5095
(dp5495
g5237
I1
ssg4010
g5433
sg3963
g5377
sg4020
g5451
sg4015
g5444
ssg4666
(dp5496
g5130
(dp5497
g5237
I1
ssg4656
g5486
sg1458
g5275
sg4631
g5460
sg5055
(dp5498
g5237
I1
ssg5105
(dp5499
g5237
I1
ssg5125
(dp5500
g5237
I1
sssg4671
(dp5501
g5205
(dp5502
g5237
I1
ssg5150
(dp5503
g5237
I1
ssg5100
(dp5504
g5237
I1
ssg5090
(dp5505
g5237
I1
ssg5115
(dp5506
g5237
I1
sssg5055
(dp5507
g5130
(dp5508
g5237
I1
ssg4656
g5484
sg1458
g5273
sg4631
g5458
sg5105
(dp5509
g5237
I1
ssg4666
g5498
sg5125
(dp5510
g5237
I1
sssg5060
(dp5511
g4646
g5474
sg5155
(dp5512
g5237
I1
ssg4661
g5492
sg5210
(dp5513
g5237
I1
ssg5095
(dp5514
g5237
I1
ssg4020
g5452
ssg5065
(dp5515
g4005
g5428
sg3948
g5361
sg3953
g5363
sg3990
g5415
sg5175
(dp5516
g5237
I1
ssg5195
(dp5517
g5237
I1
ssg3943
g5341
sg3054
g5297
sg3973
g5388
ssg5070
(dp5518
g4651
g5479
sg4661
g5493
sg3540
g5320
sg5210
(dp5519
g5237
I1
ssg370
g5254
sg5095
(dp5520
g5237
I1
ssg3963
g5378
sg4015
g5445
ssg5075
(dp5521
g12
g5241
sg3978
g5395
sg1453
g5265
sg3061
g5309
sg5140
(dp5522
g5237
I1
ssg5200
(dp5523
g5237
I1
ssg5215
(dp5524
g5237
I1
ssg5225
(dp5525
g5237
I1
sssg5080
(dp5526
g5120
(dp5527
g5237
I1
ssg5145
(dp5528
g5237
I1
ssg5165
(dp5529
g5237
I1
ssg5180
(dp5530
g5237
I1
ssg3545
g5330
sg5110
(dp5531
g5237
I1
sssg5085
(dp5532
g3968
g5385
sg2112
g5284
sg5185
(dp5533
g5237
I1
ssg3049
g5293
sg3990
g5413
sg3938
g5337
sg3948
g5357
sg3958
g5373
sg5220
(dp5534
g5237
I1
sssg5090
(dp5535
g5205
(dp5536
g5237
I1
ssg5150
(dp5537
g5237
I1
ssg5100
(dp5538
g5237
I1
ssg4671
g5505
sg5115
(dp5539
g5237
I1
sssg5095
(dp5540
g4651
g5481
sg4646
g5476
sg5155
(dp5541
g5237
I1
ssg4661
g5495
sg3540
g5322
sg5060
g5514
sg5070
g5520
sg5210
(dp5542
g5237
I1
ssg370
g5256
sg3963
g5380
sg4020
g5454
sg4015
g5447
ssg5100
(dp5543
g5205
(dp5544
g5237
I1
ssg5150
(dp5545
g5237
I1
ssg4671
g5504
sg5090
g5538
sg5115
(dp5546
g5237
I1
sssg5105
(dp5547
g5130
(dp5548
g5237
I1
ssg4656
g5485
sg1458
g5274
sg4631
g5459
sg5055
g5509
sg4666
g5499
sg5125
(dp5549
g5237
I1
sssg5110
(dp5550
g5120
(dp5551
g5237
I1
ssg5145
(dp5552
g5237
I1
ssg5165
(dp5553
g5237
I1
ssg5180
(dp5554
g5237
I1
ssg5080
g5531
sg3545
g5331
ssg5115
(dp5555
g5205
(dp5556
g5237
I1
ssg5150
(dp5557
g5237
I1
ssg5100
g5546
sg4671
g5506
sg5090
g5539
ssg5120
(dp5558
g5145
(dp5559
g5237
I1
ssg5165
(dp5560
g5237
I1
ssg5180
(dp5561
g5237
I1
ssg5080
g5527
sg3545
g5326
sg5110
g5551
ssg5125
(dp5562
g5130
(dp5563
g5237
I1
ssg4656
g5487
sg1458
g5276
sg4631
g5461
sg5055
g5510
sg5105
g5549
sg4666
g5500
ssg5130
(dp5564
g4656
g5483
sg1458
g5270
sg4631
g5456
sg5055
g5508
sg5105
g5548
sg4666
g5497
sg5125
g5563
ssg5135
(dp5565
g4636
g5466
sg4641
g5470
sg3983
g5404
sg5190
(dp5566
g5237
I1
ssg4661
g5490
sg370
g5249
sg4010
g5436
sg3995
g5421
sg4015
g5442
ssg5140
(dp5567
g12
g5240
sg3978
g5394
sg1453
g5264
sg3061
g5308
sg5075
g5522
sg5200
(dp5568
g5237
I1
ssg5215
(dp5569
g5237
I1
ssg5225
(dp5570
g5237
I1
sssg5145
(dp5571
g5120
g5559
sg5165
(dp5572
g5237
I1
ssg5180
(dp5573
g5237
I1
ssg5080
g5528
sg3545
g5327
sg5110
g5552
ssg5150
(dp5574
g5205
(dp5575
g5237
I1
ssg5100
g5545
sg4671
g5503
sg5090
g5537
sg5115
g5557
ssg5155
(dp5576
g4646
g5472
sg4661
g5491
sg5060
g5512
sg5210
(dp5577
g5237
I1
ssg5095
g5541
sg4020
g5450
ssg5160
(dp5578
g5170
(dp5579
g5237
I1
ssg3066
g5316
sg4000
g5426
ssg5165
(dp5580
g5120
g5560
sg5145
g5572
sg5180
(dp5581
g5237
I1
ssg5080
g5529
sg3545
g5328
sg5110
g5553
ssg5170
(dp5582
g3066
g5314
sg4000
g5425
sg5160
g5579
ssg5175
(dp5583
g5065
g5516
sg4005
g5429
sg3948
g5353
sg3953
g5366
sg3990
g5411
sg5195
(dp5584
g5237
I1
ssg3943
g5346
sg3054
g5301
sg3973
g5391
ssg5180
(dp5585
g5120
g5561
sg5145
g5573
sg5165
g5581
sg5080
g5530
sg3545
g5329
sg5110
g5554
ssg5185
(dp5586
g3968
g5383
sg2112
g5279
sg3049
g5289
sg3990
g5410
sg3938
g5334
sg3948
g5352
sg5085
g5533
sg3958
g5371
sg5220
(dp5587
g5237
I1
sssg5190
(dp5588
g4636
g5464
sg4661
g5489
sg3983
g5402
sg4641
g5468
sg5135
g5566
sg370
g5251
sg4010
g5434
sg3995
g5419
sg4015
g5443
ssg5195
(dp5589
g5065
g5517
sg4005
g5430
sg3948
g5355
sg3953
g5367
sg3990
g5412
sg5175
g5584
sg3943
g5347
sg3054
g5302
sg3973
g5392
ssg5200
(dp5590
g12
g5242
sg3978
g5396
sg1453
g5266
sg3061
g5310
sg5140
g5568
sg5075
g5523
sg5215
(dp5591
g5237
I1
ssg5225
(dp5592
g5237
I1
sssg5205
(dp5593
g5150
g5575
sg5100
g5544
sg4671
g5502
sg5090
g5536
sg5115
g5556
ssg5210
(dp5594
g4651
g5480
sg4646
g5475
sg5155
g5577
sg4661
g5494
sg3540
g5321
sg5060
g5513
sg5070
g5519
sg370
g5255
sg5095
g5542
sg3963
g5379
sg4020
g5453
sg4015
g5446
ssg5215
(dp5595
g12
g5243
sg3978
g5397
sg1453
g5267
sg3061
g5311
sg5140
g5569
sg5075
g5524
sg5200
g5591
sg5225
(dp5596
g5237
I1
sssg5220
(dp5597
g3968
g5386
sg2112
g5286
sg5185
g5587
sg3049
g5295
sg3990
g5414
sg3938
g5339
sg3948
g5360
sg5085
g5534
sg3958
g5374
ssg5225
(dp5598
g12
g5244
sg3978
g5398
sg1453
g5268
sg3061
g5312
sg5140
g5570
sg5075
g5525
sg5200
g5592
sg5215
g5596
sssS'adjlist_outer_dict_factory'
p5599
g7
sb.